
kernel/kernel:     file format elf64-littleriscv


Disassembly of section .text:

0000000080200000 <_start>:
    80200000:	100002b7          	lui	t0,0x10000

0000000080200004 <uart_wait>:
    80200004:	00528303          	lb	t1,5(t0) # 10000005 <_start-0x701ffffb>
    80200008:	02000393          	li	t2,32
    8020000c:	00737333          	and	t1,t1,t2
    80200010:	fe030ae3          	beqz	t1,80200004 <uart_wait>
    80200014:	04100313          	li	t1,65
    80200018:	00628023          	sb	t1,0(t0)
    8020001c:	00021117          	auipc	sp,0x21
    80200020:	fe410113          	add	sp,sp,-28 # 80221000 <kmem>
    80200024:	00010517          	auipc	a0,0x10
    80200028:	fdc50513          	add	a0,a0,-36 # 80210000 <kernel_pagetable>
    8020002c:	00042597          	auipc	a1,0x42
    80200030:	df458593          	add	a1,a1,-524 # 80241e20 <__bss_end>

0000000080200034 <clear_bss_loop>:
    80200034:	00b55663          	bge	a0,a1,80200040 <clear_bss_done>
    80200038:	00053023          	sd	zero,0(a0)
    8020003c:	0521                	add	a0,a0,8
    8020003e:	bfdd                	j	80200034 <clear_bss_loop>

0000000080200040 <clear_bss_done>:
    80200040:	04200313          	li	t1,66
    80200044:	00628023          	sb	t1,0(t0)
    80200048:	39f000ef          	jal	80200be6 <kmain>

000000008020004c <halt>:
    8020004c:	a001                	j	8020004c <halt>

000000008020004e <cons_putc>:
// kernel/console.c
#include "defs.h"

// 控制台输出一个字符
// 目前它只是简单地调用 UART 驱动
void cons_putc(char c) {
    8020004e:	1141                	add	sp,sp,-16
    80200050:	e406                	sd	ra,8(sp)
    80200052:	e022                	sd	s0,0(sp)
    80200054:	0800                	add	s0,sp,16
    uart_putc(c);
    80200056:	00000097          	auipc	ra,0x0
    8020005a:	39a080e7          	jalr	922(ra) # 802003f0 <uart_putc>
}
    8020005e:	60a2                	ld	ra,8(sp)
    80200060:	6402                	ld	s0,0(sp)
    80200062:	0141                	add	sp,sp,16
    80200064:	8082                	ret

0000000080200066 <consolewrite>:

int consolewrite(int user_src, uint64 src, int n) {
    80200066:	7179                	add	sp,sp,-48
    80200068:	f406                	sd	ra,40(sp)
    8020006a:	f022                	sd	s0,32(sp)
    8020006c:	ec26                	sd	s1,24(sp)
    8020006e:	e84a                	sd	s2,16(sp)
    80200070:	e44e                	sd	s3,8(sp)
    80200072:	1800                	add	s0,sp,48
    80200074:	89b2                	mv	s3,a2
    (void)user_src;
    char *p = (char*)src;
    for (int i = 0; i < n; i++) {
    80200076:	00c05e63          	blez	a2,80200092 <consolewrite+0x2c>
    8020007a:	84ae                	mv	s1,a1
    8020007c:	00b60933          	add	s2,a2,a1
    uart_putc(c);
    80200080:	0004c503          	lbu	a0,0(s1)
    80200084:	00000097          	auipc	ra,0x0
    80200088:	36c080e7          	jalr	876(ra) # 802003f0 <uart_putc>
    for (int i = 0; i < n; i++) {
    8020008c:	0485                	add	s1,s1,1
    8020008e:	ff2499e3          	bne	s1,s2,80200080 <consolewrite+0x1a>
        cons_putc(p[i]);
    }
    return n;
}
    80200092:	854e                	mv	a0,s3
    80200094:	70a2                	ld	ra,40(sp)
    80200096:	7402                	ld	s0,32(sp)
    80200098:	64e2                	ld	s1,24(sp)
    8020009a:	6942                	ld	s2,16(sp)
    8020009c:	69a2                	ld	s3,8(sp)
    8020009e:	6145                	add	sp,sp,48
    802000a0:	8082                	ret

00000000802000a2 <consoleread>:

int consoleread(int user_dst, uint64 dst, int n) {
    802000a2:	1141                	add	sp,sp,-16
    802000a4:	e422                	sd	s0,8(sp)
    802000a6:	0800                	add	s0,sp,16
    (void)user_dst;
    (void)dst;
    (void)n;
    return -1;
    802000a8:	557d                	li	a0,-1
    802000aa:	6422                	ld	s0,8(sp)
    802000ac:	0141                	add	sp,sp,16
    802000ae:	8082                	ret

00000000802000b0 <print_int>:
#include <stdarg.h>
#include "defs.h"
#include "riscv.h" // 引入 riscv.h 以使用 uint64 类型

// 静态辅助函数，用于打印不同进制的数字。
static void print_int(long long xx, int base, int sign) {
    802000b0:	711d                	add	sp,sp,-96
    802000b2:	ec86                	sd	ra,88(sp)
    802000b4:	e8a2                	sd	s0,80(sp)
    802000b6:	e4a6                	sd	s1,72(sp)
    802000b8:	e0ca                	sd	s2,64(sp)
    802000ba:	1080                	add	s0,sp,96
    802000bc:	84aa                	mv	s1,a0
    802000be:	892e                	mv	s2,a1
    char digits[] = "0123456789abcdef";
    802000c0:	00006797          	auipc	a5,0x6
    802000c4:	f4078793          	add	a5,a5,-192 # 80206000 <_etext>
    802000c8:	6398                	ld	a4,0(a5)
    802000ca:	fce43423          	sd	a4,-56(s0)
    802000ce:	6798                	ld	a4,8(a5)
    802000d0:	fce43823          	sd	a4,-48(s0)
    802000d4:	0107c783          	lbu	a5,16(a5)
    802000d8:	fcf40c23          	sb	a5,-40(s0)
    char buf[32];
    int i = 0;
    unsigned long long x;

    if (sign && xx < 0) {
    802000dc:	c219                	beqz	a2,802000e2 <print_int+0x32>
    802000de:	06054263          	bltz	a0,80200142 <print_int+0x92>
        cons_putc('-');
        x = -xx;
    } else {
        x = xx;
    802000e2:	8526                	mv	a0,s1
static void print_int(long long xx, int base, int sign) {
    802000e4:	fa840693          	add	a3,s0,-88
    802000e8:	4701                	li	a4,0
    }

    do {
        buf[i++] = digits[x % base];
    802000ea:	863a                	mv	a2,a4
    802000ec:	2705                	addw	a4,a4,1
    802000ee:	032577b3          	remu	a5,a0,s2
    802000f2:	1781                	add	a5,a5,-32
    802000f4:	97a2                	add	a5,a5,s0
    802000f6:	fe87c783          	lbu	a5,-24(a5)
    802000fa:	00f68023          	sb	a5,0(a3)
    } while ((x /= base) != 0);
    802000fe:	87aa                	mv	a5,a0
    80200100:	03255533          	divu	a0,a0,s2
    80200104:	0685                	add	a3,a3,1
    80200106:	ff27f2e3          	bgeu	a5,s2,802000ea <print_int+0x3a>

    while (--i >= 0) {
    8020010a:	02064663          	bltz	a2,80200136 <print_int+0x86>
    8020010e:	fa840793          	add	a5,s0,-88
    80200112:	00c784b3          	add	s1,a5,a2
    80200116:	fff78913          	add	s2,a5,-1
    8020011a:	9932                	add	s2,s2,a2
    8020011c:	1602                	sll	a2,a2,0x20
    8020011e:	9201                	srl	a2,a2,0x20
    80200120:	40c90933          	sub	s2,s2,a2
        cons_putc(buf[i]);
    80200124:	0004c503          	lbu	a0,0(s1)
    80200128:	00000097          	auipc	ra,0x0
    8020012c:	f26080e7          	jalr	-218(ra) # 8020004e <cons_putc>
    while (--i >= 0) {
    80200130:	14fd                	add	s1,s1,-1
    80200132:	ff2499e3          	bne	s1,s2,80200124 <print_int+0x74>
    }
}
    80200136:	60e6                	ld	ra,88(sp)
    80200138:	6446                	ld	s0,80(sp)
    8020013a:	64a6                	ld	s1,72(sp)
    8020013c:	6906                	ld	s2,64(sp)
    8020013e:	6125                	add	sp,sp,96
    80200140:	8082                	ret
        cons_putc('-');
    80200142:	02d00513          	li	a0,45
    80200146:	00000097          	auipc	ra,0x0
    8020014a:	f08080e7          	jalr	-248(ra) # 8020004e <cons_putc>
        x = -xx;
    8020014e:	40900533          	neg	a0,s1
    80200152:	bf49                	j	802000e4 <print_int+0x34>

0000000080200154 <printf>:
        cons_putc(buf[i]);
    }
}

// 内核的 printf 函数本体
void printf(const char *fmt, ...) {
    80200154:	7131                	add	sp,sp,-192
    80200156:	fc86                	sd	ra,120(sp)
    80200158:	f8a2                	sd	s0,112(sp)
    8020015a:	f4a6                	sd	s1,104(sp)
    8020015c:	f0ca                	sd	s2,96(sp)
    8020015e:	ecce                	sd	s3,88(sp)
    80200160:	e8d2                	sd	s4,80(sp)
    80200162:	e4d6                	sd	s5,72(sp)
    80200164:	e0da                	sd	s6,64(sp)
    80200166:	fc5e                	sd	s7,56(sp)
    80200168:	f862                	sd	s8,48(sp)
    8020016a:	f466                	sd	s9,40(sp)
    8020016c:	f06a                	sd	s10,32(sp)
    8020016e:	0100                	add	s0,sp,128
    80200170:	e40c                	sd	a1,8(s0)
    80200172:	e810                	sd	a2,16(s0)
    80200174:	ec14                	sd	a3,24(s0)
    80200176:	f018                	sd	a4,32(s0)
    80200178:	f41c                	sd	a5,40(s0)
    8020017a:	03043823          	sd	a6,48(s0)
    8020017e:	03143c23          	sd	a7,56(s0)
    va_list args;
    char *s;
    int c;

    if (fmt == 0) {
    80200182:	20050463          	beqz	a0,8020038a <printf+0x236>
    80200186:	84aa                	mv	s1,a0
        return;
    }

    va_start(args, fmt);
    80200188:	00840793          	add	a5,s0,8
    8020018c:	f8f43c23          	sd	a5,-104(s0)
    for (c = *fmt; c != '\0'; c = *++fmt) {
    80200190:	00054503          	lbu	a0,0(a0)
    80200194:	1e050b63          	beqz	a0,8020038a <printf+0x236>
        if (c != '%') {
    80200198:	02500993          	li	s3,37
        }

        c = *++fmt;
        if (c == '\0') break;

        switch (c) {
    8020019c:	4bd1                	li	s7,20
    8020019e:	00006c17          	auipc	s8,0x6
    802001a2:	e96c0c13          	add	s8,s8,-362 # 80206034 <_etext+0x34>
                }
                break;
            // [新增] 支持 %l 前缀 (如 %ld, %lu)
            case 'l':
                c = *++fmt; // 获取 'l' 后面的字符
                if (c == 'd') {
    802001a6:	06400c93          	li	s9,100
    802001aa:	f8840a13          	add	s4,s0,-120
    802001ae:	f9840b13          	add	s6,s0,-104
        buf[i] = "0123456789abcdef"[x % 16];
    802001b2:	00006a97          	auipc	s5,0x6
    802001b6:	e4ea8a93          	add	s5,s5,-434 # 80206000 <_etext>
    802001ba:	a821                	j	802001d2 <printf+0x7e>
            cons_putc(c);
    802001bc:	00000097          	auipc	ra,0x0
    802001c0:	e92080e7          	jalr	-366(ra) # 8020004e <cons_putc>
            continue;
    802001c4:	8926                	mv	s2,s1
    for (c = *fmt; c != '\0'; c = *++fmt) {
    802001c6:	00190493          	add	s1,s2,1
    802001ca:	00194503          	lbu	a0,1(s2)
    802001ce:	1a050e63          	beqz	a0,8020038a <printf+0x236>
        if (c != '%') {
    802001d2:	ff3515e3          	bne	a0,s3,802001bc <printf+0x68>
        c = *++fmt;
    802001d6:	00148913          	add	s2,s1,1
    802001da:	0014cd03          	lbu	s10,1(s1)
        if (c == '\0') break;
    802001de:	1a0d0663          	beqz	s10,8020038a <printf+0x236>
        switch (c) {
    802001e2:	193d0363          	beq	s10,s3,80200368 <printf+0x214>
    802001e6:	f9cd079b          	addw	a5,s10,-100
    802001ea:	0ff7f793          	zext.b	a5,a5
    802001ee:	18fbe363          	bltu	s7,a5,80200374 <printf+0x220>
    802001f2:	f9cd079b          	addw	a5,s10,-100
    802001f6:	0ff7f713          	zext.b	a4,a5
    802001fa:	16ebed63          	bltu	s7,a4,80200374 <printf+0x220>
    802001fe:	00271793          	sll	a5,a4,0x2
    80200202:	97e2                	add	a5,a5,s8
    80200204:	439c                	lw	a5,0(a5)
    80200206:	97e2                	add	a5,a5,s8
    80200208:	8782                	jr	a5
                print_int(va_arg(args, int), 10, 1);
    8020020a:	f9843783          	ld	a5,-104(s0)
    8020020e:	00878713          	add	a4,a5,8
    80200212:	f8e43c23          	sd	a4,-104(s0)
    80200216:	4605                	li	a2,1
    80200218:	45a9                	li	a1,10
    8020021a:	4388                	lw	a0,0(a5)
    8020021c:	00000097          	auipc	ra,0x0
    80200220:	e94080e7          	jalr	-364(ra) # 802000b0 <print_int>
                break;
    80200224:	b74d                	j	802001c6 <printf+0x72>
                print_int(va_arg(args, int), 16, 0);
    80200226:	f9843783          	ld	a5,-104(s0)
    8020022a:	00878713          	add	a4,a5,8
    8020022e:	f8e43c23          	sd	a4,-104(s0)
    80200232:	4601                	li	a2,0
    80200234:	45c1                	li	a1,16
    80200236:	4388                	lw	a0,0(a5)
    80200238:	00000097          	auipc	ra,0x0
    8020023c:	e78080e7          	jalr	-392(ra) # 802000b0 <print_int>
                break;
    80200240:	b759                	j	802001c6 <printf+0x72>
                print_ptr(va_arg(args, uint64));
    80200242:	f9843783          	ld	a5,-104(s0)
    80200246:	00878713          	add	a4,a5,8
    8020024a:	f8e43c23          	sd	a4,-104(s0)
    8020024e:	6384                	ld	s1,0(a5)
    cons_putc('0');
    80200250:	03000513          	li	a0,48
    80200254:	00000097          	auipc	ra,0x0
    80200258:	dfa080e7          	jalr	-518(ra) # 8020004e <cons_putc>
    cons_putc('x');
    8020025c:	07800513          	li	a0,120
    80200260:	00000097          	auipc	ra,0x0
    80200264:	dee080e7          	jalr	-530(ra) # 8020004e <cons_putc>
    80200268:	87d2                	mv	a5,s4
        buf[i] = "0123456789abcdef"[x % 16];
    8020026a:	00f4f713          	and	a4,s1,15
    8020026e:	9756                	add	a4,a4,s5
    80200270:	00074703          	lbu	a4,0(a4)
    80200274:	00e78023          	sb	a4,0(a5)
        x /= 16;
    80200278:	8091                	srl	s1,s1,0x4
    for (i = 0; i < 16; i++) {
    8020027a:	0785                	add	a5,a5,1
    8020027c:	ff6797e3          	bne	a5,s6,8020026a <printf+0x116>
    80200280:	f9740493          	add	s1,s0,-105
        cons_putc(buf[i]);
    80200284:	0004c503          	lbu	a0,0(s1)
    80200288:	00000097          	auipc	ra,0x0
    8020028c:	dc6080e7          	jalr	-570(ra) # 8020004e <cons_putc>
    for (i = 15; i >= 0; i--) {
    80200290:	87a6                	mv	a5,s1
    80200292:	14fd                	add	s1,s1,-1
    80200294:	fefa18e3          	bne	s4,a5,80200284 <printf+0x130>
    80200298:	b73d                	j	802001c6 <printf+0x72>
                s = va_arg(args, char *);
    8020029a:	f9843783          	ld	a5,-104(s0)
    8020029e:	00878713          	add	a4,a5,8
    802002a2:	f8e43c23          	sd	a4,-104(s0)
    802002a6:	6384                	ld	s1,0(a5)
                if (s == 0) {
    802002a8:	cc89                	beqz	s1,802002c2 <printf+0x16e>
                while (*s != '\0') {
    802002aa:	0004c503          	lbu	a0,0(s1)
    802002ae:	dd01                	beqz	a0,802001c6 <printf+0x72>
                    cons_putc(*s++);
    802002b0:	0485                	add	s1,s1,1
    802002b2:	00000097          	auipc	ra,0x0
    802002b6:	d9c080e7          	jalr	-612(ra) # 8020004e <cons_putc>
                while (*s != '\0') {
    802002ba:	0004c503          	lbu	a0,0(s1)
    802002be:	f96d                	bnez	a0,802002b0 <printf+0x15c>
    802002c0:	b719                	j	802001c6 <printf+0x72>
                    s = "(null)";
    802002c2:	00006497          	auipc	s1,0x6
    802002c6:	d5648493          	add	s1,s1,-682 # 80206018 <_etext+0x18>
                while (*s != '\0') {
    802002ca:	02800513          	li	a0,40
    802002ce:	b7cd                	j	802002b0 <printf+0x15c>
                c = *++fmt; // 获取 'l' 后面的字符
    802002d0:	00248913          	add	s2,s1,2
    802002d4:	0024c483          	lbu	s1,2(s1)
    802002d8:	0004879b          	sext.w	a5,s1
                if (c == 'd') {
    802002dc:	03978c63          	beq	a5,s9,80200314 <printf+0x1c0>
                    print_int(va_arg(args, long), 10, 1);
                } else if (c == 'u') {
    802002e0:	07500713          	li	a4,117
    802002e4:	04e78663          	beq	a5,a4,80200330 <printf+0x1dc>
                    print_int(va_arg(args, long), 10, 0); // 无符号十进制
                } else if (c == 'x') {
    802002e8:	07800713          	li	a4,120
    802002ec:	06e78063          	beq	a5,a4,8020034c <printf+0x1f8>
                    print_int(va_arg(args, long), 16, 0);
                } else {
                    // 如果是不支持的格式，回退一点
                    cons_putc('%');
    802002f0:	02500513          	li	a0,37
    802002f4:	00000097          	auipc	ra,0x0
    802002f8:	d5a080e7          	jalr	-678(ra) # 8020004e <cons_putc>
                    cons_putc('l');
    802002fc:	06c00513          	li	a0,108
    80200300:	00000097          	auipc	ra,0x0
    80200304:	d4e080e7          	jalr	-690(ra) # 8020004e <cons_putc>
                    cons_putc(c);
    80200308:	8526                	mv	a0,s1
    8020030a:	00000097          	auipc	ra,0x0
    8020030e:	d44080e7          	jalr	-700(ra) # 8020004e <cons_putc>
    80200312:	bd55                	j	802001c6 <printf+0x72>
                    print_int(va_arg(args, long), 10, 1);
    80200314:	f9843783          	ld	a5,-104(s0)
    80200318:	00878713          	add	a4,a5,8
    8020031c:	f8e43c23          	sd	a4,-104(s0)
    80200320:	4605                	li	a2,1
    80200322:	45a9                	li	a1,10
    80200324:	6388                	ld	a0,0(a5)
    80200326:	00000097          	auipc	ra,0x0
    8020032a:	d8a080e7          	jalr	-630(ra) # 802000b0 <print_int>
    8020032e:	bd61                	j	802001c6 <printf+0x72>
                    print_int(va_arg(args, long), 10, 0); // 无符号十进制
    80200330:	f9843783          	ld	a5,-104(s0)
    80200334:	00878713          	add	a4,a5,8
    80200338:	f8e43c23          	sd	a4,-104(s0)
    8020033c:	4601                	li	a2,0
    8020033e:	45a9                	li	a1,10
    80200340:	6388                	ld	a0,0(a5)
    80200342:	00000097          	auipc	ra,0x0
    80200346:	d6e080e7          	jalr	-658(ra) # 802000b0 <print_int>
    8020034a:	bdb5                	j	802001c6 <printf+0x72>
                    print_int(va_arg(args, long), 16, 0);
    8020034c:	f9843783          	ld	a5,-104(s0)
    80200350:	00878713          	add	a4,a5,8
    80200354:	f8e43c23          	sd	a4,-104(s0)
    80200358:	4601                	li	a2,0
    8020035a:	45c1                	li	a1,16
    8020035c:	6388                	ld	a0,0(a5)
    8020035e:	00000097          	auipc	ra,0x0
    80200362:	d52080e7          	jalr	-686(ra) # 802000b0 <print_int>
    80200366:	b585                	j	802001c6 <printf+0x72>
                }
                break;
            case '%':
                cons_putc('%');
    80200368:	854e                	mv	a0,s3
    8020036a:	00000097          	auipc	ra,0x0
    8020036e:	ce4080e7          	jalr	-796(ra) # 8020004e <cons_putc>
                break;
    80200372:	bd91                	j	802001c6 <printf+0x72>
            default:
                // 打印未知的格式符
                cons_putc('%');
    80200374:	854e                	mv	a0,s3
    80200376:	00000097          	auipc	ra,0x0
    8020037a:	cd8080e7          	jalr	-808(ra) # 8020004e <cons_putc>
                cons_putc(c);
    8020037e:	856a                	mv	a0,s10
    80200380:	00000097          	auipc	ra,0x0
    80200384:	cce080e7          	jalr	-818(ra) # 8020004e <cons_putc>
                break;
    80200388:	bd3d                	j	802001c6 <printf+0x72>
        }
    }
    va_end(args);
}
    8020038a:	70e6                	ld	ra,120(sp)
    8020038c:	7446                	ld	s0,112(sp)
    8020038e:	74a6                	ld	s1,104(sp)
    80200390:	7906                	ld	s2,96(sp)
    80200392:	69e6                	ld	s3,88(sp)
    80200394:	6a46                	ld	s4,80(sp)
    80200396:	6aa6                	ld	s5,72(sp)
    80200398:	6b06                	ld	s6,64(sp)
    8020039a:	7be2                	ld	s7,56(sp)
    8020039c:	7c42                	ld	s8,48(sp)
    8020039e:	7ca2                	ld	s9,40(sp)
    802003a0:	7d02                	ld	s10,32(sp)
    802003a2:	6129                	add	sp,sp,192
    802003a4:	8082                	ret

00000000802003a6 <clear_screen>:

// 清屏函数
void clear_screen() {
    802003a6:	1101                	add	sp,sp,-32
    802003a8:	ec06                	sd	ra,24(sp)
    802003aa:	e822                	sd	s0,16(sp)
    802003ac:	e426                	sd	s1,8(sp)
    802003ae:	1000                	add	s0,sp,32
    const char *seq = "\033[2J\033[H";
    802003b0:	00006497          	auipc	s1,0x6
    802003b4:	c7048493          	add	s1,s1,-912 # 80206020 <_etext+0x20>
    while (*seq) {
    802003b8:	456d                	li	a0,27
        cons_putc(*seq++);
    802003ba:	0485                	add	s1,s1,1
    802003bc:	00000097          	auipc	ra,0x0
    802003c0:	c92080e7          	jalr	-878(ra) # 8020004e <cons_putc>
    while (*seq) {
    802003c4:	0004c503          	lbu	a0,0(s1)
    802003c8:	f96d                	bnez	a0,802003ba <clear_screen+0x14>
    }
}
    802003ca:	60e2                	ld	ra,24(sp)
    802003cc:	6442                	ld	s0,16(sp)
    802003ce:	64a2                	ld	s1,8(sp)
    802003d0:	6105                	add	sp,sp,32
    802003d2:	8082                	ret

00000000802003d4 <panic>:

void panic(const char *msg) {
    802003d4:	1141                	add	sp,sp,-16
    802003d6:	e406                	sd	ra,8(sp)
    802003d8:	e022                	sd	s0,0(sp)
    802003da:	0800                	add	s0,sp,16
    802003dc:	85aa                	mv	a1,a0
    printf("\npanic: %s\n", msg);
    802003de:	00006517          	auipc	a0,0x6
    802003e2:	c4a50513          	add	a0,a0,-950 # 80206028 <_etext+0x28>
    802003e6:	00000097          	auipc	ra,0x0
    802003ea:	d6e080e7          	jalr	-658(ra) # 80200154 <printf>
    while (1) { }
    802003ee:	a001                	j	802003ee <panic+0x1a>

00000000802003f0 <uart_putc>:
#define LSR_THRE (1 << 5)

/*
 * 发送一个字符到串口
 */
void uart_putc(char c) {
    802003f0:	1141                	add	sp,sp,-16
    802003f2:	e422                	sd	s0,8(sp)
    802003f4:	0800                	add	s0,sp,16
    // 循环等待，直到 THR 寄存器为空
    while ((*LSR & LSR_THRE) == 0);
    802003f6:	10000737          	lui	a4,0x10000
    802003fa:	00574783          	lbu	a5,5(a4) # 10000005 <_start-0x701ffffb>
    802003fe:	0207f793          	and	a5,a5,32
    80200402:	dfe5                	beqz	a5,802003fa <uart_putc+0xa>
    // 向 THR 写入要发送的字符
    *THR = c;
    80200404:	100007b7          	lui	a5,0x10000
    80200408:	00a78023          	sb	a0,0(a5) # 10000000 <_start-0x70200000>
}
    8020040c:	6422                	ld	s0,8(sp)
    8020040e:	0141                	add	sp,sp,16
    80200410:	8082                	ret

0000000080200412 <uart_puts>:

/*
 * 发送一个以 '\0' 结尾的字符串到串口
 */
void uart_puts(const char *s) {
    80200412:	1101                	add	sp,sp,-32
    80200414:	ec06                	sd	ra,24(sp)
    80200416:	e822                	sd	s0,16(sp)
    80200418:	e426                	sd	s1,8(sp)
    8020041a:	1000                	add	s0,sp,32
    8020041c:	84aa                	mv	s1,a0
    while (*s) {
    8020041e:	00054503          	lbu	a0,0(a0)
    80200422:	c909                	beqz	a0,80200434 <uart_puts+0x22>
        uart_putc(*s++);
    80200424:	0485                	add	s1,s1,1
    80200426:	00000097          	auipc	ra,0x0
    8020042a:	fca080e7          	jalr	-54(ra) # 802003f0 <uart_putc>
    while (*s) {
    8020042e:	0004c503          	lbu	a0,0(s1)
    80200432:	f96d                	bnez	a0,80200424 <uart_puts+0x12>
    }
    80200434:	60e2                	ld	ra,24(sp)
    80200436:	6442                	ld	s0,16(sp)
    80200438:	64a2                	ld	s1,8(sp)
    8020043a:	6105                	add	sp,sp,32
    8020043c:	8082                	ret

000000008020043e <kfree>:
        kfree(p);
    }
    printf("kinit: physical memory allocator initialized (with COW support).\n");
}

void kfree(void *pa) {
    8020043e:	1101                	add	sp,sp,-32
    80200440:	ec06                	sd	ra,24(sp)
    80200442:	e822                	sd	s0,16(sp)
    80200444:	e426                	sd	s1,8(sp)
    80200446:	e04a                	sd	s2,0(sp)
    80200448:	1000                	add	s0,sp,32
    8020044a:	892a                	mv	s2,a0
    struct run *r;

    if(((uint64)pa % PGSIZE) != 0 || (char*)pa < end || (uint64)pa >= 0x88000000)
    8020044c:	03451793          	sll	a5,a0,0x34
    80200450:	eb99                	bnez	a5,80200466 <kfree+0x28>
    80200452:	00042797          	auipc	a5,0x42
    80200456:	9ce78793          	add	a5,a5,-1586 # 80241e20 <__bss_end>
    8020045a:	00f56663          	bltu	a0,a5,80200466 <kfree+0x28>
    8020045e:	47c5                	li	a5,17
    80200460:	07ee                	sll	a5,a5,0x1b
    80200462:	00f56a63          	bltu	a0,a5,80200476 <kfree+0x38>
        panic("kfree: invalid pa");
    80200466:	00006517          	auipc	a0,0x6
    8020046a:	c2250513          	add	a0,a0,-990 # 80206088 <_etext+0x88>
    8020046e:	00000097          	auipc	ra,0x0
    80200472:	f66080e7          	jalr	-154(ra) # 802003d4 <panic>

    acquire(&kmem.lock);
    80200476:	00021517          	auipc	a0,0x21
    8020047a:	b8a50513          	add	a0,a0,-1142 # 80221000 <kmem>
    8020047e:	00000097          	auipc	ra,0x0
    80200482:	3bc080e7          	jalr	956(ra) # 8020083a <acquire>
    if (pa < 0x80000000 || pa >= 0x88000000)
    80200486:	800004b7          	lui	s1,0x80000
    8020048a:	94ca                	add	s1,s1,s2
    8020048c:	080007b7          	lui	a5,0x8000
    80200490:	08f4f363          	bgeu	s1,a5,80200516 <kfree+0xd8>
    return (pa - 0x80000000) / PGSIZE;
    80200494:	80b1                	srl	s1,s1,0xc
    80200496:	2481                	sext.w	s1,s1
    int idx = pa2idx((uint64)pa);
    
    if (kmem.ref[idx] <= 0) {
    80200498:	00021797          	auipc	a5,0x21
    8020049c:	b6878793          	add	a5,a5,-1176 # 80221000 <kmem>
    802004a0:	97a6                	add	a5,a5,s1
    802004a2:	0207c783          	lbu	a5,32(a5)
    802004a6:	c3c9                	beqz	a5,80200528 <kfree+0xea>
        release(&kmem.lock);
        panic("kfree: ref <= 0");
    }

    kmem.ref[idx]--;
    802004a8:	00021717          	auipc	a4,0x21
    802004ac:	b5870713          	add	a4,a4,-1192 # 80221000 <kmem>
    802004b0:	9726                	add	a4,a4,s1
    802004b2:	02074783          	lbu	a5,32(a4)
    802004b6:	37fd                	addw	a5,a5,-1
    802004b8:	0ff7f793          	zext.b	a5,a5
    802004bc:	02f70023          	sb	a5,32(a4)

    // 只有引用计数归零时才真正释放回链表
    if (kmem.ref[idx] > 0) {
    802004c0:	e7c9                	bnez	a5,8020054a <kfree+0x10c>
        release(&kmem.lock);
        return;
    }
    release(&kmem.lock);
    802004c2:	00021517          	auipc	a0,0x21
    802004c6:	b3e50513          	add	a0,a0,-1218 # 80221000 <kmem>
    802004ca:	00000097          	auipc	ra,0x0
    802004ce:	462080e7          	jalr	1122(ra) # 8020092c <release>

    // 真正释放：填充垃圾数据
    memset(pa, 1, PGSIZE);
    802004d2:	6605                	lui	a2,0x1
    802004d4:	4585                	li	a1,1
    802004d6:	854a                	mv	a0,s2
    802004d8:	00000097          	auipc	ra,0x0
    802004dc:	4ca080e7          	jalr	1226(ra) # 802009a2 <memset>

    r = (struct run*)pa;

    acquire(&kmem.lock);
    802004e0:	00021517          	auipc	a0,0x21
    802004e4:	b2050513          	add	a0,a0,-1248 # 80221000 <kmem>
    802004e8:	00000097          	auipc	ra,0x0
    802004ec:	352080e7          	jalr	850(ra) # 8020083a <acquire>
    r->next = kmem.freelist;
    802004f0:	00021517          	auipc	a0,0x21
    802004f4:	b1050513          	add	a0,a0,-1264 # 80221000 <kmem>
    802004f8:	6d1c                	ld	a5,24(a0)
    802004fa:	00f93023          	sd	a5,0(s2)
    kmem.freelist = r;
    802004fe:	01253c23          	sd	s2,24(a0)
    release(&kmem.lock);
    80200502:	00000097          	auipc	ra,0x0
    80200506:	42a080e7          	jalr	1066(ra) # 8020092c <release>
}
    8020050a:	60e2                	ld	ra,24(sp)
    8020050c:	6442                	ld	s0,16(sp)
    8020050e:	64a2                	ld	s1,8(sp)
    80200510:	6902                	ld	s2,0(sp)
    80200512:	6105                	add	sp,sp,32
    80200514:	8082                	ret
        panic("pa2idx: invalid pa");
    80200516:	00006517          	auipc	a0,0x6
    8020051a:	b8a50513          	add	a0,a0,-1142 # 802060a0 <_etext+0xa0>
    8020051e:	00000097          	auipc	ra,0x0
    80200522:	eb6080e7          	jalr	-330(ra) # 802003d4 <panic>
    80200526:	b7bd                	j	80200494 <kfree+0x56>
        release(&kmem.lock);
    80200528:	00021517          	auipc	a0,0x21
    8020052c:	ad850513          	add	a0,a0,-1320 # 80221000 <kmem>
    80200530:	00000097          	auipc	ra,0x0
    80200534:	3fc080e7          	jalr	1020(ra) # 8020092c <release>
        panic("kfree: ref <= 0");
    80200538:	00006517          	auipc	a0,0x6
    8020053c:	b8050513          	add	a0,a0,-1152 # 802060b8 <_etext+0xb8>
    80200540:	00000097          	auipc	ra,0x0
    80200544:	e94080e7          	jalr	-364(ra) # 802003d4 <panic>
    80200548:	b785                	j	802004a8 <kfree+0x6a>
        release(&kmem.lock);
    8020054a:	00021517          	auipc	a0,0x21
    8020054e:	ab650513          	add	a0,a0,-1354 # 80221000 <kmem>
    80200552:	00000097          	auipc	ra,0x0
    80200556:	3da080e7          	jalr	986(ra) # 8020092c <release>
        return;
    8020055a:	bf45                	j	8020050a <kfree+0xcc>

000000008020055c <kinit>:
void kinit() {
    8020055c:	715d                	add	sp,sp,-80
    8020055e:	e486                	sd	ra,72(sp)
    80200560:	e0a2                	sd	s0,64(sp)
    80200562:	fc26                	sd	s1,56(sp)
    80200564:	f84a                	sd	s2,48(sp)
    80200566:	f44e                	sd	s3,40(sp)
    80200568:	f052                	sd	s4,32(sp)
    8020056a:	ec56                	sd	s5,24(sp)
    8020056c:	e85a                	sd	s6,16(sp)
    8020056e:	e45e                	sd	s7,8(sp)
    80200570:	e062                	sd	s8,0(sp)
    80200572:	0880                	add	s0,sp,80
    spinlock_init(&kmem.lock, "kmem");
    80200574:	00006597          	auipc	a1,0x6
    80200578:	b5458593          	add	a1,a1,-1196 # 802060c8 <_etext+0xc8>
    8020057c:	00021517          	auipc	a0,0x21
    80200580:	a8450513          	add	a0,a0,-1404 # 80221000 <kmem>
    80200584:	00000097          	auipc	ra,0x0
    80200588:	254080e7          	jalr	596(ra) # 802007d8 <spinlock_init>
    memset(kmem.ref, 0, sizeof(kmem.ref));
    8020058c:	6621                	lui	a2,0x8
    8020058e:	4581                	li	a1,0
    80200590:	00021517          	auipc	a0,0x21
    80200594:	a9050513          	add	a0,a0,-1392 # 80221020 <kmem+0x20>
    80200598:	00000097          	auipc	ra,0x0
    8020059c:	40a080e7          	jalr	1034(ra) # 802009a2 <memset>
    p = (char*)PGROUNDUP((uint64)end);
    802005a0:	00043497          	auipc	s1,0x43
    802005a4:	87f48493          	add	s1,s1,-1921 # 80242e1f <__bss_end+0xfff>
    802005a8:	77fd                	lui	a5,0xfffff
    802005aa:	8cfd                	and	s1,s1,a5
    for(; p + PGSIZE <= (char*)0x88000000; p += PGSIZE) {
    802005ac:	6705                	lui	a4,0x1
    802005ae:	9726                	add	a4,a4,s1
    802005b0:	47c5                	li	a5,17
    802005b2:	07ee                	sll	a5,a5,0x1b
    802005b4:	04e7ec63          	bltu	a5,a4,8020060c <kinit+0xb0>
    802005b8:	800007b7          	lui	a5,0x80000
    802005bc:	94be                	add	s1,s1,a5
    802005be:	4a05                	li	s4,1
    802005c0:	01fa1b93          	sll	s7,s4,0x1f
    if (pa < 0x80000000 || pa >= 0x88000000)
    802005c4:	08000937          	lui	s2,0x8000
        panic("pa2idx: invalid pa");
    802005c8:	00006c17          	auipc	s8,0x6
    802005cc:	ad8c0c13          	add	s8,s8,-1320 # 802060a0 <_etext+0xa0>
        kmem.ref[pa2idx((uint64)p)] = 1; 
    802005d0:	00021b17          	auipc	s6,0x21
    802005d4:	a30b0b13          	add	s6,s6,-1488 # 80221000 <kmem>
    for(; p + PGSIZE <= (char*)0x88000000; p += PGSIZE) {
    802005d8:	6a85                	lui	s5,0x1
    802005da:	a839                	j	802005f8 <kinit+0x9c>
    return (pa - 0x80000000) / PGSIZE;
    802005dc:	00c4d793          	srl	a5,s1,0xc
        kmem.ref[pa2idx((uint64)p)] = 1; 
    802005e0:	2781                	sext.w	a5,a5
    802005e2:	97da                	add	a5,a5,s6
    802005e4:	03478023          	sb	s4,32(a5) # ffffffff80000020 <__bss_end+0xfffffffeffdbe200>
        kfree(p);
    802005e8:	854e                	mv	a0,s3
    802005ea:	00000097          	auipc	ra,0x0
    802005ee:	e54080e7          	jalr	-428(ra) # 8020043e <kfree>
    for(; p + PGSIZE <= (char*)0x88000000; p += PGSIZE) {
    802005f2:	94d6                	add	s1,s1,s5
    802005f4:	01248c63          	beq	s1,s2,8020060c <kinit+0xb0>
    802005f8:	017489b3          	add	s3,s1,s7
    if (pa < 0x80000000 || pa >= 0x88000000)
    802005fc:	ff24e0e3          	bltu	s1,s2,802005dc <kinit+0x80>
        panic("pa2idx: invalid pa");
    80200600:	8562                	mv	a0,s8
    80200602:	00000097          	auipc	ra,0x0
    80200606:	dd2080e7          	jalr	-558(ra) # 802003d4 <panic>
    8020060a:	bfc9                	j	802005dc <kinit+0x80>
    printf("kinit: physical memory allocator initialized (with COW support).\n");
    8020060c:	00006517          	auipc	a0,0x6
    80200610:	ac450513          	add	a0,a0,-1340 # 802060d0 <_etext+0xd0>
    80200614:	00000097          	auipc	ra,0x0
    80200618:	b40080e7          	jalr	-1216(ra) # 80200154 <printf>
}
    8020061c:	60a6                	ld	ra,72(sp)
    8020061e:	6406                	ld	s0,64(sp)
    80200620:	74e2                	ld	s1,56(sp)
    80200622:	7942                	ld	s2,48(sp)
    80200624:	79a2                	ld	s3,40(sp)
    80200626:	7a02                	ld	s4,32(sp)
    80200628:	6ae2                	ld	s5,24(sp)
    8020062a:	6b42                	ld	s6,16(sp)
    8020062c:	6ba2                	ld	s7,8(sp)
    8020062e:	6c02                	ld	s8,0(sp)
    80200630:	6161                	add	sp,sp,80
    80200632:	8082                	ret

0000000080200634 <kalloc>:

void *kalloc(void) {
    80200634:	1101                	add	sp,sp,-32
    80200636:	ec06                	sd	ra,24(sp)
    80200638:	e822                	sd	s0,16(sp)
    8020063a:	e426                	sd	s1,8(sp)
    8020063c:	e04a                	sd	s2,0(sp)
    8020063e:	1000                	add	s0,sp,32
    struct run *r;

    acquire(&kmem.lock);
    80200640:	00021517          	auipc	a0,0x21
    80200644:	9c050513          	add	a0,a0,-1600 # 80221000 <kmem>
    80200648:	00000097          	auipc	ra,0x0
    8020064c:	1f2080e7          	jalr	498(ra) # 8020083a <acquire>
    r = kmem.freelist;
    80200650:	00021917          	auipc	s2,0x21
    80200654:	9c893903          	ld	s2,-1592(s2) # 80221018 <kmem+0x18>
    if(r) {
    80200658:	08090563          	beqz	s2,802006e2 <kalloc+0xae>
        kmem.freelist = r->next;
    8020065c:	00093783          	ld	a5,0(s2)
    80200660:	00021717          	auipc	a4,0x21
    80200664:	9af73c23          	sd	a5,-1608(a4) # 80221018 <kmem+0x18>
    if (pa < 0x80000000 || pa >= 0x88000000)
    80200668:	800004b7          	lui	s1,0x80000
    8020066c:	94ca                	add	s1,s1,s2
    8020066e:	080007b7          	lui	a5,0x8000
    80200672:	04f4f663          	bgeu	s1,a5,802006be <kalloc+0x8a>
    return (pa - 0x80000000) / PGSIZE;
    80200676:	80b1                	srl	s1,s1,0xc
    80200678:	2481                	sext.w	s1,s1
        // 分配时，引用计数置 1
        int idx = pa2idx((uint64)r);
        if (kmem.ref[idx] != 0) {
    8020067a:	00021797          	auipc	a5,0x21
    8020067e:	98678793          	add	a5,a5,-1658 # 80221000 <kmem>
    80200682:	97a6                	add	a5,a5,s1
    80200684:	0207c783          	lbu	a5,32(a5)
    80200688:	e7a1                	bnez	a5,802006d0 <kalloc+0x9c>
            panic("kalloc: ref not 0");
        }
        kmem.ref[idx] = 1;
    8020068a:	00021517          	auipc	a0,0x21
    8020068e:	97650513          	add	a0,a0,-1674 # 80221000 <kmem>
    80200692:	94aa                	add	s1,s1,a0
    80200694:	4785                	li	a5,1
    80200696:	02f48023          	sb	a5,32(s1) # ffffffff80000020 <__bss_end+0xfffffffeffdbe200>
    }
    release(&kmem.lock);
    8020069a:	00000097          	auipc	ra,0x0
    8020069e:	292080e7          	jalr	658(ra) # 8020092c <release>

    if(r)
        memset((char*)r, 5, PGSIZE); // fill with junk
    802006a2:	6605                	lui	a2,0x1
    802006a4:	4595                	li	a1,5
    802006a6:	854a                	mv	a0,s2
    802006a8:	00000097          	auipc	ra,0x0
    802006ac:	2fa080e7          	jalr	762(ra) # 802009a2 <memset>
    return (void*)r;
}
    802006b0:	854a                	mv	a0,s2
    802006b2:	60e2                	ld	ra,24(sp)
    802006b4:	6442                	ld	s0,16(sp)
    802006b6:	64a2                	ld	s1,8(sp)
    802006b8:	6902                	ld	s2,0(sp)
    802006ba:	6105                	add	sp,sp,32
    802006bc:	8082                	ret
        panic("pa2idx: invalid pa");
    802006be:	00006517          	auipc	a0,0x6
    802006c2:	9e250513          	add	a0,a0,-1566 # 802060a0 <_etext+0xa0>
    802006c6:	00000097          	auipc	ra,0x0
    802006ca:	d0e080e7          	jalr	-754(ra) # 802003d4 <panic>
    802006ce:	b765                	j	80200676 <kalloc+0x42>
            panic("kalloc: ref not 0");
    802006d0:	00006517          	auipc	a0,0x6
    802006d4:	a4850513          	add	a0,a0,-1464 # 80206118 <_etext+0x118>
    802006d8:	00000097          	auipc	ra,0x0
    802006dc:	cfc080e7          	jalr	-772(ra) # 802003d4 <panic>
    802006e0:	b76d                	j	8020068a <kalloc+0x56>
    release(&kmem.lock);
    802006e2:	00021517          	auipc	a0,0x21
    802006e6:	91e50513          	add	a0,a0,-1762 # 80221000 <kmem>
    802006ea:	00000097          	auipc	ra,0x0
    802006ee:	242080e7          	jalr	578(ra) # 8020092c <release>
    if(r)
    802006f2:	bf7d                	j	802006b0 <kalloc+0x7c>

00000000802006f4 <kref_inc>:

// 增加引用计数 (用于 fork COW)
void kref_inc(void *pa) {
    802006f4:	1101                	add	sp,sp,-32
    802006f6:	ec06                	sd	ra,24(sp)
    802006f8:	e822                	sd	s0,16(sp)
    802006fa:	e426                	sd	s1,8(sp)
    802006fc:	1000                	add	s0,sp,32
    if ((uint64)pa < 0x80000000 || (uint64)pa >= 0x88000000) return;
    802006fe:	800007b7          	lui	a5,0x80000
    80200702:	00f504b3          	add	s1,a0,a5
    80200706:	080007b7          	lui	a5,0x8000
    8020070a:	00f4e763          	bltu	s1,a5,80200718 <kref_inc+0x24>
    acquire(&kmem.lock);
    int idx = pa2idx((uint64)pa);
    if (kmem.ref[idx] < 1) panic("kref_inc: ref < 1");
    kmem.ref[idx]++;
    release(&kmem.lock);
}
    8020070e:	60e2                	ld	ra,24(sp)
    80200710:	6442                	ld	s0,16(sp)
    80200712:	64a2                	ld	s1,8(sp)
    80200714:	6105                	add	sp,sp,32
    80200716:	8082                	ret
    acquire(&kmem.lock);
    80200718:	00021517          	auipc	a0,0x21
    8020071c:	8e850513          	add	a0,a0,-1816 # 80221000 <kmem>
    80200720:	00000097          	auipc	ra,0x0
    80200724:	11a080e7          	jalr	282(ra) # 8020083a <acquire>
    return (pa - 0x80000000) / PGSIZE;
    80200728:	80b1                	srl	s1,s1,0xc
    8020072a:	2481                	sext.w	s1,s1
    if (kmem.ref[idx] < 1) panic("kref_inc: ref < 1");
    8020072c:	00021797          	auipc	a5,0x21
    80200730:	8d478793          	add	a5,a5,-1836 # 80221000 <kmem>
    80200734:	97a6                	add	a5,a5,s1
    80200736:	0207c783          	lbu	a5,32(a5)
    8020073a:	c385                	beqz	a5,8020075a <kref_inc+0x66>
    kmem.ref[idx]++;
    8020073c:	00021517          	auipc	a0,0x21
    80200740:	8c450513          	add	a0,a0,-1852 # 80221000 <kmem>
    80200744:	94aa                	add	s1,s1,a0
    80200746:	0204c783          	lbu	a5,32(s1)
    8020074a:	2785                	addw	a5,a5,1
    8020074c:	02f48023          	sb	a5,32(s1)
    release(&kmem.lock);
    80200750:	00000097          	auipc	ra,0x0
    80200754:	1dc080e7          	jalr	476(ra) # 8020092c <release>
    80200758:	bf5d                	j	8020070e <kref_inc+0x1a>
    if (kmem.ref[idx] < 1) panic("kref_inc: ref < 1");
    8020075a:	00006517          	auipc	a0,0x6
    8020075e:	9d650513          	add	a0,a0,-1578 # 80206130 <_etext+0x130>
    80200762:	00000097          	auipc	ra,0x0
    80200766:	c72080e7          	jalr	-910(ra) # 802003d4 <panic>
    8020076a:	bfc9                	j	8020073c <kref_inc+0x48>

000000008020076c <kref_get>:

// 获取当前引用计数
int kref_get(void *pa) {
    8020076c:	1101                	add	sp,sp,-32
    8020076e:	ec06                	sd	ra,24(sp)
    80200770:	e822                	sd	s0,16(sp)
    80200772:	e426                	sd	s1,8(sp)
    80200774:	1000                	add	s0,sp,32
    if ((uint64)pa < 0x80000000 || (uint64)pa >= 0x88000000) return -1;
    80200776:	800007b7          	lui	a5,0x80000
    8020077a:	00f504b3          	add	s1,a0,a5
    8020077e:	080007b7          	lui	a5,0x8000
    80200782:	02f4fd63          	bgeu	s1,a5,802007bc <kref_get+0x50>
    acquire(&kmem.lock);
    80200786:	00021517          	auipc	a0,0x21
    8020078a:	87a50513          	add	a0,a0,-1926 # 80221000 <kmem>
    8020078e:	00000097          	auipc	ra,0x0
    80200792:	0ac080e7          	jalr	172(ra) # 8020083a <acquire>
    int c = kmem.ref[pa2idx((uint64)pa)];
    80200796:	00021517          	auipc	a0,0x21
    8020079a:	86a50513          	add	a0,a0,-1942 # 80221000 <kmem>
    return (pa - 0x80000000) / PGSIZE;
    8020079e:	80b1                	srl	s1,s1,0xc
    int c = kmem.ref[pa2idx((uint64)pa)];
    802007a0:	2481                	sext.w	s1,s1
    802007a2:	94aa                	add	s1,s1,a0
    802007a4:	0204c483          	lbu	s1,32(s1)
    release(&kmem.lock);
    802007a8:	00000097          	auipc	ra,0x0
    802007ac:	184080e7          	jalr	388(ra) # 8020092c <release>
    return c;
}
    802007b0:	8526                	mv	a0,s1
    802007b2:	60e2                	ld	ra,24(sp)
    802007b4:	6442                	ld	s0,16(sp)
    802007b6:	64a2                	ld	s1,8(sp)
    802007b8:	6105                	add	sp,sp,32
    802007ba:	8082                	ret
    if ((uint64)pa < 0x80000000 || (uint64)pa >= 0x88000000) return -1;
    802007bc:	54fd                	li	s1,-1
    802007be:	bfcd                	j	802007b0 <kref_get+0x44>

00000000802007c0 <kref_dec>:

void kref_dec(void *pa) {
    802007c0:	1141                	add	sp,sp,-16
    802007c2:	e406                	sd	ra,8(sp)
    802007c4:	e022                	sd	s0,0(sp)
    802007c6:	0800                	add	s0,sp,16
    kfree(pa);
    802007c8:	00000097          	auipc	ra,0x0
    802007cc:	c76080e7          	jalr	-906(ra) # 8020043e <kfree>
}
    802007d0:	60a2                	ld	ra,8(sp)
    802007d2:	6402                	ld	s0,0(sp)
    802007d4:	0141                	add	sp,sp,16
    802007d6:	8082                	ret

00000000802007d8 <spinlock_init>:
// kernel/spinlock.c
#include "defs.h"

void spinlock_init(struct spinlock *lk, char *name) {
    802007d8:	1141                	add	sp,sp,-16
    802007da:	e422                	sd	s0,8(sp)
    802007dc:	0800                	add	s0,sp,16
    lk->name = name;
    802007de:	e50c                	sd	a1,8(a0)
    lk->locked = 0;
    802007e0:	00053023          	sd	zero,0(a0)
    lk->cpu = 0;
    802007e4:	00053823          	sd	zero,16(a0)
}
    802007e8:	6422                	ld	s0,8(sp)
    802007ea:	0141                	add	sp,sp,16
    802007ec:	8082                	ret

00000000802007ee <push_off>:
}

// --- 中断状态保存 ---

// 记录 push_off/pop_off 的嵌套层数
void push_off(void) {
    802007ee:	1101                	add	sp,sp,-32
    802007f0:	ec06                	sd	ra,24(sp)
    802007f2:	e822                	sd	s0,16(sp)
    802007f4:	e426                	sd	s1,8(sp)
    802007f6:	1000                	add	s0,sp,32

//
// 用于读写 RISC-V 控制寄存器的内联汇编函数
//

static inline uint64 r_sstatus() { uint64 x; asm volatile("csrr %0, sstatus" : "=r" (x)); return x; }
    802007f8:	100024f3          	csrr	s1,sstatus
    802007fc:	100027f3          	csrr	a5,sstatus
void push_off(void);
void pop_off(void);

// 内联函数
static inline void intr_off() {
    w_sstatus(r_sstatus() & ~SSTATUS_SIE);
    80200800:	9bf5                	and	a5,a5,-3
static inline void w_sstatus(uint64 x) { asm volatile("csrw sstatus, %0" : : "r" (x)); }
    80200802:	10079073          	csrw	sstatus,a5
    int old = intr_get();
    intr_off();
    if (mycpu()->ncli == 0) {
    80200806:	00001097          	auipc	ra,0x1
    8020080a:	b8e080e7          	jalr	-1138(ra) # 80201394 <mycpu>
    8020080e:	5d3c                	lw	a5,120(a0)
    80200810:	cf89                	beqz	a5,8020082a <push_off+0x3c>
        mycpu()->intena = old;
    }
    mycpu()->ncli += 1;
    80200812:	00001097          	auipc	ra,0x1
    80200816:	b82080e7          	jalr	-1150(ra) # 80201394 <mycpu>
    8020081a:	5d3c                	lw	a5,120(a0)
    8020081c:	2785                	addw	a5,a5,1 # 8000001 <_start-0x781fffff>
    8020081e:	dd3c                	sw	a5,120(a0)
}
    80200820:	60e2                	ld	ra,24(sp)
    80200822:	6442                	ld	s0,16(sp)
    80200824:	64a2                	ld	s1,8(sp)
    80200826:	6105                	add	sp,sp,32
    80200828:	8082                	ret
        mycpu()->intena = old;
    8020082a:	00001097          	auipc	ra,0x1
    8020082e:	b6a080e7          	jalr	-1174(ra) # 80201394 <mycpu>
    w_sstatus(r_sstatus() | SSTATUS_SIE);
}

// 修正: 添加回缺失的 intr_get()
static inline int intr_get(void) {
    return (r_sstatus() & SSTATUS_SIE) ? 1 : 0;
    80200832:	8085                	srl	s1,s1,0x1
    80200834:	8885                	and	s1,s1,1
    80200836:	dd64                	sw	s1,124(a0)
    80200838:	bfe9                	j	80200812 <push_off+0x24>

000000008020083a <acquire>:
void acquire(struct spinlock *lk) {
    8020083a:	1101                	add	sp,sp,-32
    8020083c:	ec06                	sd	ra,24(sp)
    8020083e:	e822                	sd	s0,16(sp)
    80200840:	e426                	sd	s1,8(sp)
    80200842:	e04a                	sd	s2,0(sp)
    80200844:	1000                	add	s0,sp,32
    80200846:	84aa                	mv	s1,a0
    push_off(); // 屏蔽中断
    80200848:	00000097          	auipc	ra,0x0
    8020084c:	fa6080e7          	jalr	-90(ra) # 802007ee <push_off>
    if (lk->locked && lk->cpu == mycpu()) {
    80200850:	609c                	ld	a5,0(s1)
    80200852:	ef85                	bnez	a5,8020088a <acquire+0x50>
    while (__atomic_test_and_set(&lk->locked, __ATOMIC_ACQUIRE));
    80200854:	ffc4f713          	and	a4,s1,-4
    80200858:	0034f693          	and	a3,s1,3
    8020085c:	0036969b          	sllw	a3,a3,0x3
    80200860:	4605                	li	a2,1
    80200862:	00d6163b          	sllw	a2,a2,a3
    80200866:	44c727af          	amoor.w.aq	a5,a2,(a4)
    8020086a:	00d7d7bb          	srlw	a5,a5,a3
    8020086e:	0ff7f793          	zext.b	a5,a5
    80200872:	fbf5                	bnez	a5,80200866 <acquire+0x2c>
    lk->cpu = mycpu();
    80200874:	00001097          	auipc	ra,0x1
    80200878:	b20080e7          	jalr	-1248(ra) # 80201394 <mycpu>
    8020087c:	e888                	sd	a0,16(s1)
}
    8020087e:	60e2                	ld	ra,24(sp)
    80200880:	6442                	ld	s0,16(sp)
    80200882:	64a2                	ld	s1,8(sp)
    80200884:	6902                	ld	s2,0(sp)
    80200886:	6105                	add	sp,sp,32
    80200888:	8082                	ret
    if (lk->locked && lk->cpu == mycpu()) {
    8020088a:	0104b903          	ld	s2,16(s1)
    8020088e:	00001097          	auipc	ra,0x1
    80200892:	b06080e7          	jalr	-1274(ra) # 80201394 <mycpu>
    80200896:	faa91fe3          	bne	s2,a0,80200854 <acquire+0x1a>
        printf("acquire: re-acquire lock %s\n", lk->name);
    8020089a:	648c                	ld	a1,8(s1)
    8020089c:	00006517          	auipc	a0,0x6
    802008a0:	8ac50513          	add	a0,a0,-1876 # 80206148 <_etext+0x148>
    802008a4:	00000097          	auipc	ra,0x0
    802008a8:	8b0080e7          	jalr	-1872(ra) # 80200154 <printf>
        while(1);
    802008ac:	a001                	j	802008ac <acquire+0x72>

00000000802008ae <pop_off>:

void pop_off(void) {
    802008ae:	1141                	add	sp,sp,-16
    802008b0:	e406                	sd	ra,8(sp)
    802008b2:	e022                	sd	s0,0(sp)
    802008b4:	0800                	add	s0,sp,16
static inline uint64 r_sstatus() { uint64 x; asm volatile("csrr %0, sstatus" : "=r" (x)); return x; }
    802008b6:	100027f3          	csrr	a5,sstatus
    802008ba:	8b89                	and	a5,a5,2
    if (intr_get()) {
    802008bc:	cb91                	beqz	a5,802008d0 <pop_off+0x22>
        printf("pop_off: interrupts enabled\n");
    802008be:	00006517          	auipc	a0,0x6
    802008c2:	8aa50513          	add	a0,a0,-1878 # 80206168 <_etext+0x168>
    802008c6:	00000097          	auipc	ra,0x0
    802008ca:	88e080e7          	jalr	-1906(ra) # 80200154 <printf>
        while(1);
    802008ce:	a001                	j	802008ce <pop_off+0x20>
    }
    mycpu()->ncli -= 1;
    802008d0:	00001097          	auipc	ra,0x1
    802008d4:	ac4080e7          	jalr	-1340(ra) # 80201394 <mycpu>
    802008d8:	5d3c                	lw	a5,120(a0)
    802008da:	37fd                	addw	a5,a5,-1
    802008dc:	dd3c                	sw	a5,120(a0)
    if (mycpu()->ncli < 0) {
    802008de:	00001097          	auipc	ra,0x1
    802008e2:	ab6080e7          	jalr	-1354(ra) # 80201394 <mycpu>
    802008e6:	5d3c                	lw	a5,120(a0)
    802008e8:	0007cc63          	bltz	a5,80200900 <pop_off+0x52>
        printf("pop_off: ncli < 0\n");
        while(1);
    }
    if (mycpu()->ncli == 0 && mycpu()->intena) {
    802008ec:	00001097          	auipc	ra,0x1
    802008f0:	aa8080e7          	jalr	-1368(ra) # 80201394 <mycpu>
    802008f4:	5d3c                	lw	a5,120(a0)
    802008f6:	cf91                	beqz	a5,80200912 <pop_off+0x64>
        intr_on();
    }
    802008f8:	60a2                	ld	ra,8(sp)
    802008fa:	6402                	ld	s0,0(sp)
    802008fc:	0141                	add	sp,sp,16
    802008fe:	8082                	ret
        printf("pop_off: ncli < 0\n");
    80200900:	00006517          	auipc	a0,0x6
    80200904:	88850513          	add	a0,a0,-1912 # 80206188 <_etext+0x188>
    80200908:	00000097          	auipc	ra,0x0
    8020090c:	84c080e7          	jalr	-1972(ra) # 80200154 <printf>
        while(1);
    80200910:	a001                	j	80200910 <pop_off+0x62>
    if (mycpu()->ncli == 0 && mycpu()->intena) {
    80200912:	00001097          	auipc	ra,0x1
    80200916:	a82080e7          	jalr	-1406(ra) # 80201394 <mycpu>
    8020091a:	5d7c                	lw	a5,124(a0)
    8020091c:	dff1                	beqz	a5,802008f8 <pop_off+0x4a>
    8020091e:	100027f3          	csrr	a5,sstatus
    w_sstatus(r_sstatus() | SSTATUS_SIE);
    80200922:	0027e793          	or	a5,a5,2
static inline void w_sstatus(uint64 x) { asm volatile("csrw sstatus, %0" : : "r" (x)); }
    80200926:	10079073          	csrw	sstatus,a5
    8020092a:	b7f9                	j	802008f8 <pop_off+0x4a>

000000008020092c <release>:
void release(struct spinlock *lk) {
    8020092c:	1141                	add	sp,sp,-16
    8020092e:	e406                	sd	ra,8(sp)
    80200930:	e022                	sd	s0,0(sp)
    80200932:	0800                	add	s0,sp,16
    if (!lk->locked) {
    80200934:	611c                	ld	a5,0(a0)
    80200936:	eb99                	bnez	a5,8020094c <release+0x20>
        printf("release: lock %s not held\n", lk->name);
    80200938:	650c                	ld	a1,8(a0)
    8020093a:	00006517          	auipc	a0,0x6
    8020093e:	86650513          	add	a0,a0,-1946 # 802061a0 <_etext+0x1a0>
    80200942:	00000097          	auipc	ra,0x0
    80200946:	812080e7          	jalr	-2030(ra) # 80200154 <printf>
        while(1);
    8020094a:	a001                	j	8020094a <release+0x1e>
    lk->cpu = 0;
    8020094c:	00053823          	sd	zero,16(a0)
    __atomic_clear(&lk->locked, __ATOMIC_RELEASE);
    80200950:	0ff0000f          	fence
    80200954:	00050023          	sb	zero,0(a0)
    pop_off(); // 恢复之前的中断状态
    80200958:	00000097          	auipc	ra,0x0
    8020095c:	f56080e7          	jalr	-170(ra) # 802008ae <pop_off>
}
    80200960:	60a2                	ld	ra,8(sp)
    80200962:	6402                	ld	s0,0(sp)
    80200964:	0141                	add	sp,sp,16
    80200966:	8082                	ret

0000000080200968 <memcmp>:
#include "riscv.h"

int memcmp(const void *v1, const void *v2, uint n) {
    80200968:	1141                	add	sp,sp,-16
    8020096a:	e422                	sd	s0,8(sp)
    8020096c:	0800                	add	s0,sp,16
    const uchar *s1 = v1;
    const uchar *s2 = v2;
    while (n-- > 0) {
    8020096e:	ca05                	beqz	a2,8020099e <memcmp+0x36>
    80200970:	fff6069b          	addw	a3,a2,-1 # fff <_start-0x801ff001>
    80200974:	1682                	sll	a3,a3,0x20
    80200976:	9281                	srl	a3,a3,0x20
    80200978:	0685                	add	a3,a3,1
    8020097a:	96aa                	add	a3,a3,a0
        if (*s1 != *s2) {
    8020097c:	00054783          	lbu	a5,0(a0)
    80200980:	0005c703          	lbu	a4,0(a1)
    80200984:	00e79863          	bne	a5,a4,80200994 <memcmp+0x2c>
            return *s1 - *s2;
        }
        s1++;
    80200988:	0505                	add	a0,a0,1
        s2++;
    8020098a:	0585                	add	a1,a1,1
    while (n-- > 0) {
    8020098c:	fed518e3          	bne	a0,a3,8020097c <memcmp+0x14>
    }
    return 0;
    80200990:	4501                	li	a0,0
    80200992:	a019                	j	80200998 <memcmp+0x30>
            return *s1 - *s2;
    80200994:	40e7853b          	subw	a0,a5,a4
}
    80200998:	6422                	ld	s0,8(sp)
    8020099a:	0141                	add	sp,sp,16
    8020099c:	8082                	ret
    return 0;
    8020099e:	4501                	li	a0,0
    802009a0:	bfe5                	j	80200998 <memcmp+0x30>

00000000802009a2 <memset>:

void *memset(void *dst, int c, uint n) {
    802009a2:	1141                	add	sp,sp,-16
    802009a4:	e422                	sd	s0,8(sp)
    802009a6:	0800                	add	s0,sp,16
    char *d = dst;
    for (uint i = 0; i < n; i++) {
    802009a8:	ca19                	beqz	a2,802009be <memset+0x1c>
    802009aa:	87aa                	mv	a5,a0
    802009ac:	1602                	sll	a2,a2,0x20
    802009ae:	9201                	srl	a2,a2,0x20
    802009b0:	00a60733          	add	a4,a2,a0
        d[i] = c;
    802009b4:	00b78023          	sb	a1,0(a5)
    for (uint i = 0; i < n; i++) {
    802009b8:	0785                	add	a5,a5,1
    802009ba:	fee79de3          	bne	a5,a4,802009b4 <memset+0x12>
    }
    return dst;
}
    802009be:	6422                	ld	s0,8(sp)
    802009c0:	0141                	add	sp,sp,16
    802009c2:	8082                	ret

00000000802009c4 <memmove>:

void *memmove(void *dst, const void *src, uint n) {
    802009c4:	1141                	add	sp,sp,-16
    802009c6:	e422                	sd	s0,8(sp)
    802009c8:	0800                	add	s0,sp,16
    const char *s = src;
    char *d = dst;
    if (s < d && s + n > d) {
    802009ca:	02a5e563          	bltu	a1,a0,802009f4 <memmove+0x30>
        d += n;
        while (n-- > 0) {
            *--d = *--s;
        }
    } else {
        while (n-- > 0) {
    802009ce:	fff6069b          	addw	a3,a2,-1
    802009d2:	ce11                	beqz	a2,802009ee <memmove+0x2a>
    802009d4:	1682                	sll	a3,a3,0x20
    802009d6:	9281                	srl	a3,a3,0x20
    802009d8:	0685                	add	a3,a3,1
    802009da:	96ae                	add	a3,a3,a1
    802009dc:	87aa                	mv	a5,a0
            *d++ = *s++;
    802009de:	0585                	add	a1,a1,1
    802009e0:	0785                	add	a5,a5,1
    802009e2:	fff5c703          	lbu	a4,-1(a1)
    802009e6:	fee78fa3          	sb	a4,-1(a5)
        while (n-- > 0) {
    802009ea:	fed59ae3          	bne	a1,a3,802009de <memmove+0x1a>
        }
    }
    return dst;
}
    802009ee:	6422                	ld	s0,8(sp)
    802009f0:	0141                	add	sp,sp,16
    802009f2:	8082                	ret
    if (s < d && s + n > d) {
    802009f4:	02061713          	sll	a4,a2,0x20
    802009f8:	9301                	srl	a4,a4,0x20
    802009fa:	00e587b3          	add	a5,a1,a4
    802009fe:	fcf578e3          	bgeu	a0,a5,802009ce <memmove+0xa>
        d += n;
    80200a02:	972a                	add	a4,a4,a0
        while (n-- > 0) {
    80200a04:	fff6069b          	addw	a3,a2,-1
    80200a08:	d27d                	beqz	a2,802009ee <memmove+0x2a>
    80200a0a:	02069613          	sll	a2,a3,0x20
    80200a0e:	9201                	srl	a2,a2,0x20
    80200a10:	fff64613          	not	a2,a2
    80200a14:	963e                	add	a2,a2,a5
            *--d = *--s;
    80200a16:	17fd                	add	a5,a5,-1
    80200a18:	177d                	add	a4,a4,-1
    80200a1a:	0007c683          	lbu	a3,0(a5)
    80200a1e:	00d70023          	sb	a3,0(a4)
        while (n-- > 0) {
    80200a22:	fef61ae3          	bne	a2,a5,80200a16 <memmove+0x52>
    80200a26:	b7e1                	j	802009ee <memmove+0x2a>

0000000080200a28 <memcpy>:

void *memcpy(void *dst, const void *src, uint n) {
    80200a28:	1141                	add	sp,sp,-16
    80200a2a:	e406                	sd	ra,8(sp)
    80200a2c:	e022                	sd	s0,0(sp)
    80200a2e:	0800                	add	s0,sp,16
    return memmove(dst, src, n);
    80200a30:	00000097          	auipc	ra,0x0
    80200a34:	f94080e7          	jalr	-108(ra) # 802009c4 <memmove>
}
    80200a38:	60a2                	ld	ra,8(sp)
    80200a3a:	6402                	ld	s0,0(sp)
    80200a3c:	0141                	add	sp,sp,16
    80200a3e:	8082                	ret

0000000080200a40 <strncmp>:

int strncmp(const char *p, const char *q, uint n) {
    80200a40:	1141                	add	sp,sp,-16
    80200a42:	e422                	sd	s0,8(sp)
    80200a44:	0800                	add	s0,sp,16
    while (n > 0 && *p && *p == *q) {
    80200a46:	ce11                	beqz	a2,80200a62 <strncmp+0x22>
    80200a48:	00054783          	lbu	a5,0(a0)
    80200a4c:	cf89                	beqz	a5,80200a66 <strncmp+0x26>
    80200a4e:	0005c703          	lbu	a4,0(a1)
    80200a52:	00f71a63          	bne	a4,a5,80200a66 <strncmp+0x26>
        p++;
    80200a56:	0505                	add	a0,a0,1
        q++;
    80200a58:	0585                	add	a1,a1,1
        n--;
    80200a5a:	367d                	addw	a2,a2,-1
    while (n > 0 && *p && *p == *q) {
    80200a5c:	f675                	bnez	a2,80200a48 <strncmp+0x8>
    }
    if (n == 0) {
        return 0;
    80200a5e:	4501                	li	a0,0
    80200a60:	a809                	j	80200a72 <strncmp+0x32>
    80200a62:	4501                	li	a0,0
    80200a64:	a039                	j	80200a72 <strncmp+0x32>
    if (n == 0) {
    80200a66:	ca09                	beqz	a2,80200a78 <strncmp+0x38>
    }
    return (uchar)*p - (uchar)*q;
    80200a68:	00054503          	lbu	a0,0(a0)
    80200a6c:	0005c783          	lbu	a5,0(a1)
    80200a70:	9d1d                	subw	a0,a0,a5
}
    80200a72:	6422                	ld	s0,8(sp)
    80200a74:	0141                	add	sp,sp,16
    80200a76:	8082                	ret
        return 0;
    80200a78:	4501                	li	a0,0
    80200a7a:	bfe5                	j	80200a72 <strncmp+0x32>

0000000080200a7c <strncpy>:

char *strncpy(char *s, const char *t, int n) {
    80200a7c:	1141                	add	sp,sp,-16
    80200a7e:	e422                	sd	s0,8(sp)
    80200a80:	0800                	add	s0,sp,16
    int i;
    for (i = 0; i < n && t[i]; i++) {
    80200a82:	87aa                	mv	a5,a0
    80200a84:	4701                	li	a4,0
    80200a86:	02c05b63          	blez	a2,80200abc <strncpy+0x40>
    80200a8a:	0005c683          	lbu	a3,0(a1)
    80200a8e:	ca89                	beqz	a3,80200aa0 <strncpy+0x24>
        s[i] = t[i];
    80200a90:	00d78023          	sb	a3,0(a5)
    for (i = 0; i < n && t[i]; i++) {
    80200a94:	2705                	addw	a4,a4,1
    80200a96:	0585                	add	a1,a1,1
    80200a98:	0785                	add	a5,a5,1
    80200a9a:	fee618e3          	bne	a2,a4,80200a8a <strncpy+0xe>
    80200a9e:	a839                	j	80200abc <strncpy+0x40>
    }
    for (; i < n; i++) {
    80200aa0:	00c75e63          	bge	a4,a2,80200abc <strncpy+0x40>
    80200aa4:	00e507b3          	add	a5,a0,a4
    80200aa8:	9e19                	subw	a2,a2,a4
    80200aaa:	1602                	sll	a2,a2,0x20
    80200aac:	9201                	srl	a2,a2,0x20
    80200aae:	00c78733          	add	a4,a5,a2
        s[i] = 0;
    80200ab2:	00078023          	sb	zero,0(a5)
    for (; i < n; i++) {
    80200ab6:	0785                	add	a5,a5,1
    80200ab8:	fee79de3          	bne	a5,a4,80200ab2 <strncpy+0x36>
    }
    return s;
}
    80200abc:	6422                	ld	s0,8(sp)
    80200abe:	0141                	add	sp,sp,16
    80200ac0:	8082                	ret

0000000080200ac2 <strlen>:

int strlen(const char *s) {
    80200ac2:	1141                	add	sp,sp,-16
    80200ac4:	e422                	sd	s0,8(sp)
    80200ac6:	0800                	add	s0,sp,16
    int n = 0;
    while (s[n]) {
    80200ac8:	00054783          	lbu	a5,0(a0)
    80200acc:	cf91                	beqz	a5,80200ae8 <strlen+0x26>
    80200ace:	0505                	add	a0,a0,1
    80200ad0:	87aa                	mv	a5,a0
    80200ad2:	86be                	mv	a3,a5
    80200ad4:	0785                	add	a5,a5,1
    80200ad6:	fff7c703          	lbu	a4,-1(a5)
    80200ada:	ff65                	bnez	a4,80200ad2 <strlen+0x10>
        n++;
    80200adc:	40a6853b          	subw	a0,a3,a0
    80200ae0:	2505                	addw	a0,a0,1
    }
    return n;
}
    80200ae2:	6422                	ld	s0,8(sp)
    80200ae4:	0141                	add	sp,sp,16
    80200ae6:	8082                	ret
    int n = 0;
    80200ae8:	4501                	li	a0,0
    80200aea:	bfe5                	j	80200ae2 <strlen+0x20>

0000000080200aec <safestrcpy>:

char *safestrcpy(char *s, const char *t, int n) {
    80200aec:	1141                	add	sp,sp,-16
    80200aee:	e422                	sd	s0,8(sp)
    80200af0:	0800                	add	s0,sp,16
    if (n <= 0) {
    80200af2:	02c05663          	blez	a2,80200b1e <safestrcpy+0x32>
        return s;
    }
    int i;
    for (i = 0; i < n - 1 && t[i]; i++) {
    80200af6:	4785                	li	a5,1
    80200af8:	02c7d663          	bge	a5,a2,80200b24 <safestrcpy+0x38>
    80200afc:	86aa                	mv	a3,a0
    80200afe:	367d                	addw	a2,a2,-1
    80200b00:	4781                	li	a5,0
    80200b02:	0005c703          	lbu	a4,0(a1)
    80200b06:	cb09                	beqz	a4,80200b18 <safestrcpy+0x2c>
        s[i] = t[i];
    80200b08:	00e68023          	sb	a4,0(a3)
    for (i = 0; i < n - 1 && t[i]; i++) {
    80200b0c:	2785                	addw	a5,a5,1
    80200b0e:	0585                	add	a1,a1,1
    80200b10:	0685                	add	a3,a3,1
    80200b12:	fec798e3          	bne	a5,a2,80200b02 <safestrcpy+0x16>
    80200b16:	87b2                	mv	a5,a2
    }
    s[i] = 0;
    80200b18:	97aa                	add	a5,a5,a0
    80200b1a:	00078023          	sb	zero,0(a5)
    return s;
}
    80200b1e:	6422                	ld	s0,8(sp)
    80200b20:	0141                	add	sp,sp,16
    80200b22:	8082                	ret
    for (i = 0; i < n - 1 && t[i]; i++) {
    80200b24:	4781                	li	a5,0
    80200b26:	bfcd                	j	80200b18 <safestrcpy+0x2c>

0000000080200b28 <main_task>:
// kernel/main.c
#include "defs.h"
#include "riscv.h"

void main_task(void) {
    80200b28:	1141                	add	sp,sp,-16
    80200b2a:	e406                	sd	ra,8(sp)
    80200b2c:	e022                	sd	s0,0(sp)
    80200b2e:	0800                	add	s0,sp,16
    printf("===== main_task Started (PID %d) =====\n", myproc()->pid);
    80200b30:	00001097          	auipc	ra,0x1
    80200b34:	878080e7          	jalr	-1928(ra) # 802013a8 <myproc>
    80200b38:	4d4c                	lw	a1,28(a0)
    80200b3a:	00005517          	auipc	a0,0x5
    80200b3e:	68650513          	add	a0,a0,1670 # 802061c0 <_etext+0x1c0>
    80200b42:	fffff097          	auipc	ra,0xfffff
    80200b46:	612080e7          	jalr	1554(ra) # 80200154 <printf>
    
    // 将需要I/O同步的初始化移到进程中执行
    binit();
    80200b4a:	00001097          	auipc	ra,0x1
    80200b4e:	32c080e7          	jalr	812(ra) # 80201e76 <binit>
    fileinit();
    80200b52:	00003097          	auipc	ra,0x3
    80200b56:	dee080e7          	jalr	-530(ra) # 80203940 <fileinit>
    
    printf("DEBUG: Device Inits Done\n"); // binit/fileinit 不做 I/O，但放在这里保持结构
    80200b5a:	00005517          	auipc	a0,0x5
    80200b5e:	68e50513          	add	a0,a0,1678 # 802061e8 <_etext+0x1e8>
    80200b62:	fffff097          	auipc	ra,0xfffff
    80200b66:	5f2080e7          	jalr	1522(ra) # 80200154 <printf>
    
    virtio_disk_init(); // 可能会有 I/O
    80200b6a:	00004097          	auipc	ra,0x4
    80200b6e:	e6e080e7          	jalr	-402(ra) # 802049d8 <virtio_disk_init>
    printf("DEBUG: VirtIO Init Done\n");
    80200b72:	00005517          	auipc	a0,0x5
    80200b76:	69650513          	add	a0,a0,1686 # 80206208 <_etext+0x208>
    80200b7a:	fffff097          	auipc	ra,0xfffff
    80200b7e:	5da080e7          	jalr	1498(ra) # 80200154 <printf>

    iinit();
    80200b82:	00002097          	auipc	ra,0x2
    80200b86:	95c080e7          	jalr	-1700(ra) # 802024de <iinit>
    printf("DEBUG: FS Init Done\n");
    80200b8a:	00005517          	auipc	a0,0x5
    80200b8e:	69e50513          	add	a0,a0,1694 # 80206228 <_etext+0x228>
    80200b92:	fffff097          	auipc	ra,0xfffff
    80200b96:	5c2080e7          	jalr	1474(ra) # 80200154 <printf>
    
    extern struct superblock sb;
    initlog(ROOTDEV, &sb);
    80200b9a:	00036597          	auipc	a1,0x36
    80200b9e:	3c658593          	add	a1,a1,966 # 80236f60 <sb>
    80200ba2:	4505                	li	a0,1
    80200ba4:	00003097          	auipc	ra,0x3
    80200ba8:	930080e7          	jalr	-1744(ra) # 802034d4 <initlog>
    printf("DEBUG: Log Init Done\n");
    80200bac:	00005517          	auipc	a0,0x5
    80200bb0:	69450513          	add	a0,a0,1684 # 80206240 <_etext+0x240>
    80200bb4:	fffff097          	auipc	ra,0xfffff
    80200bb8:	5a0080e7          	jalr	1440(ra) # 80200154 <printf>

    printf("===== Project 5: Copy-on-Write Fork System =====\n");
    80200bbc:	00005517          	auipc	a0,0x5
    80200bc0:	69c50513          	add	a0,a0,1692 # 80206258 <_etext+0x258>
    80200bc4:	fffff097          	auipc	ra,0xfffff
    80200bc8:	590080e7          	jalr	1424(ra) # 80200154 <printf>
    run_cow_tests();
    80200bcc:	00004097          	auipc	ra,0x4
    80200bd0:	64a080e7          	jalr	1610(ra) # 80205216 <run_cow_tests>
    printf("\nPress Ctrl-A then X to quit QEMU.\n");
    80200bd4:	00005517          	auipc	a0,0x5
    80200bd8:	6bc50513          	add	a0,a0,1724 # 80206290 <_etext+0x290>
    80200bdc:	fffff097          	auipc	ra,0xfffff
    80200be0:	578080e7          	jalr	1400(ra) # 80200154 <printf>
    while (1);
    80200be4:	a001                	j	80200be4 <main_task+0xbc>

0000000080200be6 <kmain>:
}


void kmain(void) {
    80200be6:	1141                	add	sp,sp,-16
    80200be8:	e406                	sd	ra,8(sp)
    80200bea:	e022                	sd	s0,0(sp)
    80200bec:	0800                	add	s0,sp,16
    clear_screen();
    80200bee:	fffff097          	auipc	ra,0xfffff
    80200bf2:	7b8080e7          	jalr	1976(ra) # 802003a6 <clear_screen>
    printf("===== Kernel Booting =====\n");
    80200bf6:	00005517          	auipc	a0,0x5
    80200bfa:	6c250513          	add	a0,a0,1730 # 802062b8 <_etext+0x2b8>
    80200bfe:	fffff097          	auipc	ra,0xfffff
    80200c02:	556080e7          	jalr	1366(ra) # 80200154 <printf>
    
    // 只需要内存和进程/中断的基础初始化
    kinit();
    80200c06:	00000097          	auipc	ra,0x0
    80200c0a:	956080e7          	jalr	-1706(ra) # 8020055c <kinit>
    kvminit();
    80200c0e:	00000097          	auipc	ra,0x0
    80200c12:	3d8080e7          	jalr	984(ra) # 80200fe6 <kvminit>
    kvminithart();
    80200c16:	00000097          	auipc	ra,0x0
    80200c1a:	4e2080e7          	jalr	1250(ra) # 802010f8 <kvminithart>
    procinit();
    80200c1e:	00000097          	auipc	ra,0x0
    80200c22:	7b8080e7          	jalr	1976(ra) # 802013d6 <procinit>
    trap_init();
    80200c26:	00001097          	auipc	ra,0x1
    80200c2a:	dba080e7          	jalr	-582(ra) # 802019e0 <trap_init>
    clock_init();
    80200c2e:	00001097          	auipc	ra,0x1
    80200c32:	dca080e7          	jalr	-566(ra) # 802019f8 <clock_init>
    
    // I/O 驱动自身的初始化 (不进行实际 I/O)
    // 即使这里不调用，virtio_disk_init() 也会在 main_task 里被调用
    
    if (create_process(main_task) < 0) {
    80200c36:	00000517          	auipc	a0,0x0
    80200c3a:	ef250513          	add	a0,a0,-270 # 80200b28 <main_task>
    80200c3e:	00000097          	auipc	ra,0x0
    80200c42:	7f4080e7          	jalr	2036(ra) # 80201432 <create_process>
    80200c46:	00054663          	bltz	a0,80200c52 <kmain+0x6c>
        printf("kmain: failed to create main_task\n");
        while(1);
    }
    
    // 启动调度器，将 CPU 控制权交给 main_task，main_task 将完成剩下的初始化
    scheduler();
    80200c4a:	00001097          	auipc	ra,0x1
    80200c4e:	994080e7          	jalr	-1644(ra) # 802015de <scheduler>
        printf("kmain: failed to create main_task\n");
    80200c52:	00005517          	auipc	a0,0x5
    80200c56:	68650513          	add	a0,a0,1670 # 802062d8 <_etext+0x2d8>
    80200c5a:	fffff097          	auipc	ra,0xfffff
    80200c5e:	4fa080e7          	jalr	1274(ra) # 80200154 <printf>
        while(1);
    80200c62:	a001                	j	80200c62 <kmain+0x7c>

0000000080200c64 <walk>:
// 外部符号，由链接脚本定义
extern char etext[]; 

// 遍历页表，找到指定虚拟地址对应的PTE。
static pte_t *walk(pagetable_t pagetable, uint64 va, int alloc) {
    if (va >= (1L << 39)) {
    80200c64:	57fd                	li	a5,-1
    80200c66:	83e5                	srl	a5,a5,0x19
    80200c68:	08b7e963          	bltu	a5,a1,80200cfa <walk+0x96>
static pte_t *walk(pagetable_t pagetable, uint64 va, int alloc) {
    80200c6c:	7139                	add	sp,sp,-64
    80200c6e:	fc06                	sd	ra,56(sp)
    80200c70:	f822                	sd	s0,48(sp)
    80200c72:	f426                	sd	s1,40(sp)
    80200c74:	f04a                	sd	s2,32(sp)
    80200c76:	ec4e                	sd	s3,24(sp)
    80200c78:	e852                	sd	s4,16(sp)
    80200c7a:	e456                	sd	s5,8(sp)
    80200c7c:	e05a                	sd	s6,0(sp)
    80200c7e:	0080                	add	s0,sp,64
    80200c80:	84aa                	mv	s1,a0
    80200c82:	89ae                	mv	s3,a1
    80200c84:	8ab2                	mv	s5,a2
    80200c86:	4a79                	li	s4,30
        return 0; // 虚拟地址过大
    }
    
    for (int level = 2; level > 0; level--) {
    80200c88:	4b31                	li	s6,12
    80200c8a:	a80d                	j	80200cbc <walk+0x58>
        pte_t *pte = &pagetable[VPN(va, level)];
        if (*pte & PTE_V) {
            pagetable = (pagetable_t)PTE2PA(*pte);
        } else {
            if (!alloc || (pagetable = (pagetable_t)kalloc()) == 0) {
    80200c8c:	060a8963          	beqz	s5,80200cfe <walk+0x9a>
    80200c90:	00000097          	auipc	ra,0x0
    80200c94:	9a4080e7          	jalr	-1628(ra) # 80200634 <kalloc>
    80200c98:	84aa                	mv	s1,a0
    80200c9a:	c531                	beqz	a0,80200ce6 <walk+0x82>
                return 0; // 分配失败
            }
            memset(pagetable, 0, PGSIZE);
    80200c9c:	6605                	lui	a2,0x1
    80200c9e:	4581                	li	a1,0
    80200ca0:	00000097          	auipc	ra,0x0
    80200ca4:	d02080e7          	jalr	-766(ra) # 802009a2 <memset>
            *pte = PA2PTE(pagetable) | PTE_V;
    80200ca8:	00c4d793          	srl	a5,s1,0xc
    80200cac:	07aa                	sll	a5,a5,0xa
    80200cae:	0017e793          	or	a5,a5,1
    80200cb2:	00f93023          	sd	a5,0(s2)
    for (int level = 2; level > 0; level--) {
    80200cb6:	3a5d                	addw	s4,s4,-9
    80200cb8:	036a0063          	beq	s4,s6,80200cd8 <walk+0x74>
        pte_t *pte = &pagetable[VPN(va, level)];
    80200cbc:	0149d933          	srl	s2,s3,s4
    80200cc0:	1ff97913          	and	s2,s2,511
    80200cc4:	090e                	sll	s2,s2,0x3
    80200cc6:	9926                	add	s2,s2,s1
        if (*pte & PTE_V) {
    80200cc8:	00093483          	ld	s1,0(s2)
    80200ccc:	0014f793          	and	a5,s1,1
    80200cd0:	dfd5                	beqz	a5,80200c8c <walk+0x28>
            pagetable = (pagetable_t)PTE2PA(*pte);
    80200cd2:	80a9                	srl	s1,s1,0xa
    80200cd4:	04b2                	sll	s1,s1,0xc
    80200cd6:	b7c5                	j	80200cb6 <walk+0x52>
        }
    }
    return &pagetable[VPN(va, 0)];
    80200cd8:	00c9d993          	srl	s3,s3,0xc
    80200cdc:	1ff9f993          	and	s3,s3,511
    80200ce0:	098e                	sll	s3,s3,0x3
    80200ce2:	01348533          	add	a0,s1,s3
}
    80200ce6:	70e2                	ld	ra,56(sp)
    80200ce8:	7442                	ld	s0,48(sp)
    80200cea:	74a2                	ld	s1,40(sp)
    80200cec:	7902                	ld	s2,32(sp)
    80200cee:	69e2                	ld	s3,24(sp)
    80200cf0:	6a42                	ld	s4,16(sp)
    80200cf2:	6aa2                	ld	s5,8(sp)
    80200cf4:	6b02                	ld	s6,0(sp)
    80200cf6:	6121                	add	sp,sp,64
    80200cf8:	8082                	ret
        return 0; // 虚拟地址过大
    80200cfa:	4501                	li	a0,0
}
    80200cfc:	8082                	ret
                return 0; // 分配失败
    80200cfe:	4501                	li	a0,0
    80200d00:	b7dd                	j	80200ce6 <walk+0x82>

0000000080200d02 <mappages>:

// 创建内核页表
int mappages(pagetable_t pagetable, uint64 va, uint64 size, uint64 pa, int perm) {
    80200d02:	715d                	add	sp,sp,-80
    80200d04:	e486                	sd	ra,72(sp)
    80200d06:	e0a2                	sd	s0,64(sp)
    80200d08:	fc26                	sd	s1,56(sp)
    80200d0a:	f84a                	sd	s2,48(sp)
    80200d0c:	f44e                	sd	s3,40(sp)
    80200d0e:	f052                	sd	s4,32(sp)
    80200d10:	ec56                	sd	s5,24(sp)
    80200d12:	e85a                	sd	s6,16(sp)
    80200d14:	e45e                	sd	s7,8(sp)
    80200d16:	0880                	add	s0,sp,80
    80200d18:	8aaa                	mv	s5,a0
    80200d1a:	8b3a                	mv	s6,a4
    uint64 a, last;
    pte_t *pte;

    a = PGROUNDDOWN(va);
    80200d1c:	777d                	lui	a4,0xfffff
    80200d1e:	00e5f7b3          	and	a5,a1,a4
    last = PGROUNDDOWN(va + size - 1);
    80200d22:	fff60993          	add	s3,a2,-1 # fff <_start-0x801ff001>
    80200d26:	99ae                	add	s3,s3,a1
    80200d28:	00e9f9b3          	and	s3,s3,a4
    a = PGROUNDDOWN(va);
    80200d2c:	893e                	mv	s2,a5
    80200d2e:	40f68a33          	sub	s4,a3,a5
        }
        *pte = PA2PTE(pa) | perm | PTE_V;
        if (a == last) {
            break;
        }
        a += PGSIZE;
    80200d32:	6b85                	lui	s7,0x1
    80200d34:	a821                	j	80200d4c <mappages+0x4a>
            printf("mappages: remap is not supported\n");
    80200d36:	00005517          	auipc	a0,0x5
    80200d3a:	5ca50513          	add	a0,a0,1482 # 80206300 <_etext+0x300>
    80200d3e:	fffff097          	auipc	ra,0xfffff
    80200d42:	416080e7          	jalr	1046(ra) # 80200154 <printf>
            return -1;
    80200d46:	557d                	li	a0,-1
    80200d48:	a81d                	j	80200d7e <mappages+0x7c>
        a += PGSIZE;
    80200d4a:	995e                	add	s2,s2,s7
    for (;;) {
    80200d4c:	012a04b3          	add	s1,s4,s2
        if ((pte = walk(pagetable, a, 1)) == 0) {
    80200d50:	4605                	li	a2,1
    80200d52:	85ca                	mv	a1,s2
    80200d54:	8556                	mv	a0,s5
    80200d56:	00000097          	auipc	ra,0x0
    80200d5a:	f0e080e7          	jalr	-242(ra) # 80200c64 <walk>
    80200d5e:	cd19                	beqz	a0,80200d7c <mappages+0x7a>
        if (*pte & PTE_V) {
    80200d60:	611c                	ld	a5,0(a0)
    80200d62:	8b85                	and	a5,a5,1
    80200d64:	fbe9                	bnez	a5,80200d36 <mappages+0x34>
        *pte = PA2PTE(pa) | perm | PTE_V;
    80200d66:	80b1                	srl	s1,s1,0xc
    80200d68:	04aa                	sll	s1,s1,0xa
    80200d6a:	0164e4b3          	or	s1,s1,s6
    80200d6e:	0014e493          	or	s1,s1,1
    80200d72:	e104                	sd	s1,0(a0)
        if (a == last) {
    80200d74:	fd391be3          	bne	s2,s3,80200d4a <mappages+0x48>
        pa += PGSIZE;
    }
    return 0;
    80200d78:	4501                	li	a0,0
    80200d7a:	a011                	j	80200d7e <mappages+0x7c>
            return -1;
    80200d7c:	557d                	li	a0,-1
}
    80200d7e:	60a6                	ld	ra,72(sp)
    80200d80:	6406                	ld	s0,64(sp)
    80200d82:	74e2                	ld	s1,56(sp)
    80200d84:	7942                	ld	s2,48(sp)
    80200d86:	79a2                	ld	s3,40(sp)
    80200d88:	7a02                	ld	s4,32(sp)
    80200d8a:	6ae2                	ld	s5,24(sp)
    80200d8c:	6b42                	ld	s6,16(sp)
    80200d8e:	6ba2                	ld	s7,8(sp)
    80200d90:	6161                	add	sp,sp,80
    80200d92:	8082                	ret

0000000080200d94 <create_pagetable>:

// 创建一个空的页表
pagetable_t create_pagetable(void) {
    80200d94:	1101                	add	sp,sp,-32
    80200d96:	ec06                	sd	ra,24(sp)
    80200d98:	e822                	sd	s0,16(sp)
    80200d9a:	e426                	sd	s1,8(sp)
    80200d9c:	1000                	add	s0,sp,32
    pagetable_t pt = (pagetable_t)kalloc();
    80200d9e:	00000097          	auipc	ra,0x0
    80200da2:	896080e7          	jalr	-1898(ra) # 80200634 <kalloc>
    80200da6:	84aa                	mv	s1,a0
    if (pt == 0) return 0;
    80200da8:	c519                	beqz	a0,80200db6 <create_pagetable+0x22>
    memset(pt, 0, PGSIZE);
    80200daa:	6605                	lui	a2,0x1
    80200dac:	4581                	li	a1,0
    80200dae:	00000097          	auipc	ra,0x0
    80200db2:	bf4080e7          	jalr	-1036(ra) # 802009a2 <memset>
    return pt;
}
    80200db6:	8526                	mv	a0,s1
    80200db8:	60e2                	ld	ra,24(sp)
    80200dba:	6442                	ld	s0,16(sp)
    80200dbc:	64a2                	ld	s1,8(sp)
    80200dbe:	6105                	add	sp,sp,32
    80200dc0:	8082                	ret

0000000080200dc2 <walk_lookup>:

// 查找 PTE
pte_t *walk_lookup(pagetable_t pt, uint64 va) {
    80200dc2:	1141                	add	sp,sp,-16
    80200dc4:	e406                	sd	ra,8(sp)
    80200dc6:	e022                	sd	s0,0(sp)
    80200dc8:	0800                	add	s0,sp,16
    return walk(pt, va, 0);
    80200dca:	4601                	li	a2,0
    80200dcc:	00000097          	auipc	ra,0x0
    80200dd0:	e98080e7          	jalr	-360(ra) # 80200c64 <walk>
}
    80200dd4:	60a2                	ld	ra,8(sp)
    80200dd6:	6402                	ld	s0,0(sp)
    80200dd8:	0141                	add	sp,sp,16
    80200dda:	8082                	ret

0000000080200ddc <map_page>:

// 映射单个页
int map_page(pagetable_t pt, uint64 va, uint64 pa, int perm) {
    80200ddc:	1141                	add	sp,sp,-16
    80200dde:	e406                	sd	ra,8(sp)
    80200de0:	e022                	sd	s0,0(sp)
    80200de2:	0800                	add	s0,sp,16
    80200de4:	8736                	mv	a4,a3
    return mappages(pt, va, PGSIZE, pa, perm);
    80200de6:	86b2                	mv	a3,a2
    80200de8:	6605                	lui	a2,0x1
    80200dea:	00000097          	auipc	ra,0x0
    80200dee:	f18080e7          	jalr	-232(ra) # 80200d02 <mappages>
}
    80200df2:	60a2                	ld	ra,8(sp)
    80200df4:	6402                	ld	s0,0(sp)
    80200df6:	0141                	add	sp,sp,16
    80200df8:	8082                	ret

0000000080200dfa <cow_alloc>:
int cow_alloc(pagetable_t pagetable, uint64 va) {
    uint64 pa;
    pte_t *pte;
    uint flags;

    if (va >= (1L << 39)) return -1;
    80200dfa:	57fd                	li	a5,-1
    80200dfc:	83e5                	srl	a5,a5,0x19
    80200dfe:	08b7ec63          	bltu	a5,a1,80200e96 <cow_alloc+0x9c>
int cow_alloc(pagetable_t pagetable, uint64 va) {
    80200e02:	7179                	add	sp,sp,-48
    80200e04:	f406                	sd	ra,40(sp)
    80200e06:	f022                	sd	s0,32(sp)
    80200e08:	ec26                	sd	s1,24(sp)
    80200e0a:	e84a                	sd	s2,16(sp)
    80200e0c:	e44e                	sd	s3,8(sp)
    80200e0e:	1800                	add	s0,sp,48

    va = PGROUNDDOWN(va);
    pte = walk_lookup(pagetable, va);
    80200e10:	77fd                	lui	a5,0xfffff
    80200e12:	8dfd                	and	a1,a1,a5
    80200e14:	00000097          	auipc	ra,0x0
    80200e18:	fae080e7          	jalr	-82(ra) # 80200dc2 <walk_lookup>
    80200e1c:	89aa                	mv	s3,a0
    if (pte == 0) return -1;
    80200e1e:	cd35                	beqz	a0,80200e9a <cow_alloc+0xa0>
    if ((*pte & PTE_V) == 0) return -1;
    80200e20:	610c                	ld	a1,0(a0)
    80200e22:	0015f793          	and	a5,a1,1
    80200e26:	cfa5                	beqz	a5,80200e9e <cow_alloc+0xa4>
    
    // 检查是否是 COW 页 (必须是只读，且设置了 COW 标志)
    if ((*pte & PTE_COW) == 0 || (*pte & PTE_W)) {
    80200e28:	1045f793          	and	a5,a1,260
    80200e2c:	10000713          	li	a4,256
    80200e30:	06e79963          	bne	a5,a4,80200ea2 <cow_alloc+0xa8>
        return -1; 
    }

    pa = PTE2PA(*pte);
    80200e34:	81a9                	srl	a1,a1,0xa
    80200e36:	00c59913          	sll	s2,a1,0xc

    // 分配新物理页
    char *mem = kalloc();
    80200e3a:	fffff097          	auipc	ra,0xfffff
    80200e3e:	7fa080e7          	jalr	2042(ra) # 80200634 <kalloc>
    80200e42:	84aa                	mv	s1,a0
    if (mem == 0) {
    80200e44:	cd1d                	beqz	a0,80200e82 <cow_alloc+0x88>
        printf("cow_alloc: kalloc failed\n");
        return -1;
    }

    // 复制旧页内容到新页
    memmove(mem, (char*)pa, PGSIZE);
    80200e46:	6605                	lui	a2,0x1
    80200e48:	85ca                	mv	a1,s2
    80200e4a:	00000097          	auipc	ra,0x0
    80200e4e:	b7a080e7          	jalr	-1158(ra) # 802009c4 <memmove>

    // 修改 PTE：指向新页，设置 Write，清除 COW
    flags = PTE_FLAGS(*pte);
    80200e52:	0009b783          	ld	a5,0(s3)
    flags |= PTE_W;
    flags &= ~PTE_COW;
    80200e56:	2ff7f793          	and	a5,a5,767
    
    *pte = PA2PTE(mem) | flags;
    80200e5a:	0047e793          	or	a5,a5,4
    80200e5e:	80b1                	srl	s1,s1,0xc
    80200e60:	04aa                	sll	s1,s1,0xa
    80200e62:	8fc5                	or	a5,a5,s1
    80200e64:	00f9b023          	sd	a5,0(s3)

    // 减少旧物理页的引用计数
    kfree((void*)pa);
    80200e68:	854a                	mv	a0,s2
    80200e6a:	fffff097          	auipc	ra,0xfffff
    80200e6e:	5d4080e7          	jalr	1492(ra) # 8020043e <kfree>

    return 0;
    80200e72:	4501                	li	a0,0
}
    80200e74:	70a2                	ld	ra,40(sp)
    80200e76:	7402                	ld	s0,32(sp)
    80200e78:	64e2                	ld	s1,24(sp)
    80200e7a:	6942                	ld	s2,16(sp)
    80200e7c:	69a2                	ld	s3,8(sp)
    80200e7e:	6145                	add	sp,sp,48
    80200e80:	8082                	ret
        printf("cow_alloc: kalloc failed\n");
    80200e82:	00005517          	auipc	a0,0x5
    80200e86:	4a650513          	add	a0,a0,1190 # 80206328 <_etext+0x328>
    80200e8a:	fffff097          	auipc	ra,0xfffff
    80200e8e:	2ca080e7          	jalr	714(ra) # 80200154 <printf>
        return -1;
    80200e92:	557d                	li	a0,-1
    80200e94:	b7c5                	j	80200e74 <cow_alloc+0x7a>
    if (va >= (1L << 39)) return -1;
    80200e96:	557d                	li	a0,-1
}
    80200e98:	8082                	ret
    if (pte == 0) return -1;
    80200e9a:	557d                	li	a0,-1
    80200e9c:	bfe1                	j	80200e74 <cow_alloc+0x7a>
    if ((*pte & PTE_V) == 0) return -1;
    80200e9e:	557d                	li	a0,-1
    80200ea0:	bfd1                	j	80200e74 <cow_alloc+0x7a>
        return -1; 
    80200ea2:	557d                	li	a0,-1
    80200ea4:	bfc1                	j	80200e74 <cow_alloc+0x7a>

0000000080200ea6 <uvmcopy>:
int uvmcopy(pagetable_t old, pagetable_t new, uint64 sz) {
    pte_t *pte;
    uint64 pa, i;
    uint flags;

    for (i = 0; i < sz; i += PGSIZE) {
    80200ea6:	c269                	beqz	a2,80200f68 <uvmcopy+0xc2>
int uvmcopy(pagetable_t old, pagetable_t new, uint64 sz) {
    80200ea8:	711d                	add	sp,sp,-96
    80200eaa:	ec86                	sd	ra,88(sp)
    80200eac:	e8a2                	sd	s0,80(sp)
    80200eae:	e4a6                	sd	s1,72(sp)
    80200eb0:	e0ca                	sd	s2,64(sp)
    80200eb2:	fc4e                	sd	s3,56(sp)
    80200eb4:	f852                	sd	s4,48(sp)
    80200eb6:	f456                	sd	s5,40(sp)
    80200eb8:	f05a                	sd	s6,32(sp)
    80200eba:	ec5e                	sd	s7,24(sp)
    80200ebc:	e862                	sd	s8,16(sp)
    80200ebe:	e466                	sd	s9,8(sp)
    80200ec0:	1080                	add	s0,sp,96
    80200ec2:	89aa                	mv	s3,a0
    80200ec4:	8b2e                	mv	s6,a1
    80200ec6:	8932                	mv	s2,a2
    for (i = 0; i < sz; i += PGSIZE) {
    80200ec8:	4481                	li	s1,0
            continue; // 跳过未映射的页
        if ((*pte & PTE_V) == 0)
            continue; 
        
        // 跳过不可读的页 (如 guard page)
        if (!(*pte & PTE_R))
    80200eca:	4a8d                	li	s5,3
            *pte = PA2PTE(pa) | flags; 
        }

        // 将相同的物理页映射到子进程
        if (map_page(new, i, pa, flags) != 0) {
            panic("uvmcopy: map_page failed");
    80200ecc:	00005c17          	auipc	s8,0x5
    80200ed0:	47cc0c13          	add	s8,s8,1148 # 80206348 <_etext+0x348>
            *pte = PA2PTE(pa) | flags; 
    80200ed4:	7bfd                	lui	s7,0xfffff
    80200ed6:	002bdb93          	srl	s7,s7,0x2
    for (i = 0; i < sz; i += PGSIZE) {
    80200eda:	6a05                	lui	s4,0x1
    80200edc:	a80d                	j	80200f0e <uvmcopy+0x68>
            flags &= ~PTE_W;
    80200ede:	3fb6f713          	and	a4,a3,1019
            flags |= PTE_COW;
    80200ee2:	10076693          	or	a3,a4,256
            *pte = PA2PTE(pa) | flags; 
    80200ee6:	0177f7b3          	and	a5,a5,s7
    80200eea:	8fd5                	or	a5,a5,a3
    80200eec:	e11c                	sd	a5,0(a0)
        if (map_page(new, i, pa, flags) != 0) {
    80200eee:	8666                	mv	a2,s9
    80200ef0:	85a6                	mv	a1,s1
    80200ef2:	855a                	mv	a0,s6
    80200ef4:	00000097          	auipc	ra,0x0
    80200ef8:	ee8080e7          	jalr	-280(ra) # 80200ddc <map_page>
    80200efc:	e121                	bnez	a0,80200f3c <uvmcopy+0x96>
        }

        // 增加物理页的引用计数
        kref_inc((void*)pa);
    80200efe:	8566                	mv	a0,s9
    80200f00:	fffff097          	auipc	ra,0xfffff
    80200f04:	7f4080e7          	jalr	2036(ra) # 802006f4 <kref_inc>
    for (i = 0; i < sz; i += PGSIZE) {
    80200f08:	94d2                	add	s1,s1,s4
    80200f0a:	0324ff63          	bgeu	s1,s2,80200f48 <uvmcopy+0xa2>
        if ((pte = walk_lookup(old, i)) == 0)
    80200f0e:	85a6                	mv	a1,s1
    80200f10:	854e                	mv	a0,s3
    80200f12:	00000097          	auipc	ra,0x0
    80200f16:	eb0080e7          	jalr	-336(ra) # 80200dc2 <walk_lookup>
    80200f1a:	d57d                	beqz	a0,80200f08 <uvmcopy+0x62>
        if ((*pte & PTE_V) == 0)
    80200f1c:	611c                	ld	a5,0(a0)
        if (!(*pte & PTE_R))
    80200f1e:	0037f713          	and	a4,a5,3
    80200f22:	ff5713e3          	bne	a4,s5,80200f08 <uvmcopy+0x62>
        pa = PTE2PA(*pte);
    80200f26:	00a7dc93          	srl	s9,a5,0xa
    80200f2a:	0cb2                	sll	s9,s9,0xc
        flags = PTE_FLAGS(*pte);
    80200f2c:	0007869b          	sext.w	a3,a5
        if (flags & PTE_W) {
    80200f30:	0047f713          	and	a4,a5,4
    80200f34:	f74d                	bnez	a4,80200ede <uvmcopy+0x38>
        flags = PTE_FLAGS(*pte);
    80200f36:	3ff6f693          	and	a3,a3,1023
    80200f3a:	bf55                	j	80200eee <uvmcopy+0x48>
            panic("uvmcopy: map_page failed");
    80200f3c:	8562                	mv	a0,s8
    80200f3e:	fffff097          	auipc	ra,0xfffff
    80200f42:	496080e7          	jalr	1174(ra) # 802003d4 <panic>
    80200f46:	bf65                	j	80200efe <uvmcopy+0x58>
static inline uint64 r_sepc() { uint64 x; asm volatile("csrr %0, sepc" : "=r" (x)); return x; }
static inline void w_sepc(uint64 x) { asm volatile("csrw sepc, %0" : : "r" (x)); }
static inline uint64 r_stval() { uint64 x; asm volatile("csrr %0, stval" : "=r" (x) ); return x; }
static inline uint64 r_satp() { uint64 x; asm volatile("csrr %0, satp" : "=r" (x)); return x; }
static inline void w_satp(uint64 x) { asm volatile("csrw satp, %0" : : "r" (x)); }
static inline void sfence_vma() { asm volatile("sfence.vma zero, zero"); }
    80200f48:	12000073          	sfence.vma
    }
    // 刷新 TLB，因为我们在父进程中移除了 PTE_W
    sfence_vma();
    return 0;
}
    80200f4c:	4501                	li	a0,0
    80200f4e:	60e6                	ld	ra,88(sp)
    80200f50:	6446                	ld	s0,80(sp)
    80200f52:	64a6                	ld	s1,72(sp)
    80200f54:	6906                	ld	s2,64(sp)
    80200f56:	79e2                	ld	s3,56(sp)
    80200f58:	7a42                	ld	s4,48(sp)
    80200f5a:	7aa2                	ld	s5,40(sp)
    80200f5c:	7b02                	ld	s6,32(sp)
    80200f5e:	6be2                	ld	s7,24(sp)
    80200f60:	6c42                	ld	s8,16(sp)
    80200f62:	6ca2                	ld	s9,8(sp)
    80200f64:	6125                	add	sp,sp,96
    80200f66:	8082                	ret
    80200f68:	12000073          	sfence.vma
    80200f6c:	4501                	li	a0,0
    80200f6e:	8082                	ret

0000000080200f70 <uvmunmap>:

// 释放用户内存映射
void uvmunmap(pagetable_t pt, uint64 va, uint64 npages, int do_free) {
    80200f70:	7139                	add	sp,sp,-64
    80200f72:	fc06                	sd	ra,56(sp)
    80200f74:	f822                	sd	s0,48(sp)
    80200f76:	f426                	sd	s1,40(sp)
    80200f78:	f04a                	sd	s2,32(sp)
    80200f7a:	ec4e                	sd	s3,24(sp)
    80200f7c:	e852                	sd	s4,16(sp)
    80200f7e:	e456                	sd	s5,8(sp)
    80200f80:	e05a                	sd	s6,0(sp)
    80200f82:	0080                	add	s0,sp,64
    uint64 a;
    pte_t *pte;

    for (a = va; a < va + npages * PGSIZE; a += PGSIZE) {
    80200f84:	0632                	sll	a2,a2,0xc
    80200f86:	00b609b3          	add	s3,a2,a1
    80200f8a:	0535f263          	bgeu	a1,s3,80200fce <uvmunmap+0x5e>
    80200f8e:	8a2a                	mv	s4,a0
    80200f90:	892e                	mv	s2,a1
    80200f92:	8ab6                	mv	s5,a3
    80200f94:	6b05                	lui	s6,0x1
    80200f96:	a031                	j	80200fa2 <uvmunmap+0x32>
        
        uint64 pa = PTE2PA(*pte);
        if (do_free) {
            kfree((void*)pa); // kfree 会自动处理引用计数
        }
        *pte = 0;
    80200f98:	0004b023          	sd	zero,0(s1)
    for (a = va; a < va + npages * PGSIZE; a += PGSIZE) {
    80200f9c:	995a                	add	s2,s2,s6
    80200f9e:	03397863          	bgeu	s2,s3,80200fce <uvmunmap+0x5e>
        if ((pte = walk_lookup(pt, a)) == 0) continue; 
    80200fa2:	85ca                	mv	a1,s2
    80200fa4:	8552                	mv	a0,s4
    80200fa6:	00000097          	auipc	ra,0x0
    80200faa:	e1c080e7          	jalr	-484(ra) # 80200dc2 <walk_lookup>
    80200fae:	84aa                	mv	s1,a0
    80200fb0:	d575                	beqz	a0,80200f9c <uvmunmap+0x2c>
        if ((*pte & PTE_V) == 0) continue;
    80200fb2:	611c                	ld	a5,0(a0)
    80200fb4:	0017f713          	and	a4,a5,1
    80200fb8:	d375                	beqz	a4,80200f9c <uvmunmap+0x2c>
        if (do_free) {
    80200fba:	fc0a8fe3          	beqz	s5,80200f98 <uvmunmap+0x28>
        uint64 pa = PTE2PA(*pte);
    80200fbe:	83a9                	srl	a5,a5,0xa
            kfree((void*)pa); // kfree 会自动处理引用计数
    80200fc0:	00c79513          	sll	a0,a5,0xc
    80200fc4:	fffff097          	auipc	ra,0xfffff
    80200fc8:	47a080e7          	jalr	1146(ra) # 8020043e <kfree>
    80200fcc:	b7f1                	j	80200f98 <uvmunmap+0x28>
    80200fce:	12000073          	sfence.vma
    }
    sfence_vma();
}
    80200fd2:	70e2                	ld	ra,56(sp)
    80200fd4:	7442                	ld	s0,48(sp)
    80200fd6:	74a2                	ld	s1,40(sp)
    80200fd8:	7902                	ld	s2,32(sp)
    80200fda:	69e2                	ld	s3,24(sp)
    80200fdc:	6a42                	ld	s4,16(sp)
    80200fde:	6aa2                	ld	s5,8(sp)
    80200fe0:	6b02                	ld	s6,0(sp)
    80200fe2:	6121                	add	sp,sp,64
    80200fe4:	8082                	ret

0000000080200fe6 <kvminit>:

void kvminit(void) {
    80200fe6:	1101                	add	sp,sp,-32
    80200fe8:	ec06                	sd	ra,24(sp)
    80200fea:	e822                	sd	s0,16(sp)
    80200fec:	e426                	sd	s1,8(sp)
    80200fee:	1000                	add	s0,sp,32
    extern char etext[]; 
    
    kernel_pagetable = (pagetable_t)kalloc();
    80200ff0:	fffff097          	auipc	ra,0xfffff
    80200ff4:	644080e7          	jalr	1604(ra) # 80200634 <kalloc>
    80200ff8:	0000f497          	auipc	s1,0xf
    80200ffc:	00848493          	add	s1,s1,8 # 80210000 <kernel_pagetable>
    80201000:	e088                	sd	a0,0(s1)
    memset(kernel_pagetable, 0, PGSIZE);
    80201002:	6605                	lui	a2,0x1
    80201004:	4581                	li	a1,0
    80201006:	00000097          	auipc	ra,0x0
    8020100a:	99c080e7          	jalr	-1636(ra) # 802009a2 <memset>

    // 映射 UART 设备
    if (mappages(kernel_pagetable, 0x10000000, PGSIZE, 0x10000000, PTE_R | PTE_W) < 0)
    8020100e:	4719                	li	a4,6
    80201010:	100006b7          	lui	a3,0x10000
    80201014:	6605                	lui	a2,0x1
    80201016:	100005b7          	lui	a1,0x10000
    8020101a:	6088                	ld	a0,0(s1)
    8020101c:	00000097          	auipc	ra,0x0
    80201020:	ce6080e7          	jalr	-794(ra) # 80200d02 <mappages>
    80201024:	08054663          	bltz	a0,802010b0 <kvminit+0xca>
        panic("kvminit: uart map failed");

    // 映射 VirtIO 磁盘 MMIO
    if (mappages(kernel_pagetable, VIRTIO0, PGSIZE, VIRTIO0, PTE_R | PTE_W) < 0)
    80201028:	4719                	li	a4,6
    8020102a:	100016b7          	lui	a3,0x10001
    8020102e:	6605                	lui	a2,0x1
    80201030:	100015b7          	lui	a1,0x10001
    80201034:	0000f517          	auipc	a0,0xf
    80201038:	fcc53503          	ld	a0,-52(a0) # 80210000 <kernel_pagetable>
    8020103c:	00000097          	auipc	ra,0x0
    80201040:	cc6080e7          	jalr	-826(ra) # 80200d02 <mappages>
    80201044:	06054f63          	bltz	a0,802010c2 <kvminit+0xdc>
        panic("kvminit: virtio map failed");

    // 映射内核代码段 (R-X)
    if (mappages(kernel_pagetable, 0x80200000, (uint64)etext - 0x80200000, 0x80200000, PTE_R | PTE_X) < 0)
    80201048:	00005497          	auipc	s1,0x5
    8020104c:	fb848493          	add	s1,s1,-72 # 80206000 <_etext>
    80201050:	4729                	li	a4,10
    80201052:	40100693          	li	a3,1025
    80201056:	06d6                	sll	a3,a3,0x15
    80201058:	bff00613          	li	a2,-1025
    8020105c:	0656                	sll	a2,a2,0x15
    8020105e:	9626                	add	a2,a2,s1
    80201060:	85b6                	mv	a1,a3
    80201062:	0000f517          	auipc	a0,0xf
    80201066:	f9e53503          	ld	a0,-98(a0) # 80210000 <kernel_pagetable>
    8020106a:	00000097          	auipc	ra,0x0
    8020106e:	c98080e7          	jalr	-872(ra) # 80200d02 <mappages>
    80201072:	06054163          	bltz	a0,802010d4 <kvminit+0xee>
        panic("kvminit: text map failed");

    // 映射内核数据段和剩余物理内存 (RW-)
    if (mappages(kernel_pagetable, (uint64)etext, 0x88000000 - (uint64)etext, (uint64)etext, PTE_R | PTE_W) < 0)
    80201076:	4719                	li	a4,6
    80201078:	86a6                	mv	a3,s1
    8020107a:	4645                	li	a2,17
    8020107c:	066e                	sll	a2,a2,0x1b
    8020107e:	8e05                	sub	a2,a2,s1
    80201080:	85a6                	mv	a1,s1
    80201082:	0000f517          	auipc	a0,0xf
    80201086:	f7e53503          	ld	a0,-130(a0) # 80210000 <kernel_pagetable>
    8020108a:	00000097          	auipc	ra,0x0
    8020108e:	c78080e7          	jalr	-904(ra) # 80200d02 <mappages>
    80201092:	04054a63          	bltz	a0,802010e6 <kvminit+0x100>
        panic("kvminit: data map failed");
    
    printf("kvminit: kernel page table created.\n");
    80201096:	00005517          	auipc	a0,0x5
    8020109a:	35250513          	add	a0,a0,850 # 802063e8 <_etext+0x3e8>
    8020109e:	fffff097          	auipc	ra,0xfffff
    802010a2:	0b6080e7          	jalr	182(ra) # 80200154 <printf>
}
    802010a6:	60e2                	ld	ra,24(sp)
    802010a8:	6442                	ld	s0,16(sp)
    802010aa:	64a2                	ld	s1,8(sp)
    802010ac:	6105                	add	sp,sp,32
    802010ae:	8082                	ret
        panic("kvminit: uart map failed");
    802010b0:	00005517          	auipc	a0,0x5
    802010b4:	2b850513          	add	a0,a0,696 # 80206368 <_etext+0x368>
    802010b8:	fffff097          	auipc	ra,0xfffff
    802010bc:	31c080e7          	jalr	796(ra) # 802003d4 <panic>
    802010c0:	b7a5                	j	80201028 <kvminit+0x42>
        panic("kvminit: virtio map failed");
    802010c2:	00005517          	auipc	a0,0x5
    802010c6:	2c650513          	add	a0,a0,710 # 80206388 <_etext+0x388>
    802010ca:	fffff097          	auipc	ra,0xfffff
    802010ce:	30a080e7          	jalr	778(ra) # 802003d4 <panic>
    802010d2:	bf9d                	j	80201048 <kvminit+0x62>
        panic("kvminit: text map failed");
    802010d4:	00005517          	auipc	a0,0x5
    802010d8:	2d450513          	add	a0,a0,724 # 802063a8 <_etext+0x3a8>
    802010dc:	fffff097          	auipc	ra,0xfffff
    802010e0:	2f8080e7          	jalr	760(ra) # 802003d4 <panic>
    802010e4:	bf49                	j	80201076 <kvminit+0x90>
        panic("kvminit: data map failed");
    802010e6:	00005517          	auipc	a0,0x5
    802010ea:	2e250513          	add	a0,a0,738 # 802063c8 <_etext+0x3c8>
    802010ee:	fffff097          	auipc	ra,0xfffff
    802010f2:	2e6080e7          	jalr	742(ra) # 802003d4 <panic>
    802010f6:	b745                	j	80201096 <kvminit+0xb0>

00000000802010f8 <kvminithart>:

void kvminithart(void) {
    802010f8:	1141                	add	sp,sp,-16
    802010fa:	e406                	sd	ra,8(sp)
    802010fc:	e022                	sd	s0,0(sp)
    802010fe:	0800                	add	s0,sp,16
    w_satp(MAKE_SATP(kernel_pagetable));
    80201100:	0000f797          	auipc	a5,0xf
    80201104:	f007b783          	ld	a5,-256(a5) # 80210000 <kernel_pagetable>
    80201108:	83b1                	srl	a5,a5,0xc
    8020110a:	577d                	li	a4,-1
    8020110c:	177e                	sll	a4,a4,0x3f
    8020110e:	8fd9                	or	a5,a5,a4
static inline void w_satp(uint64 x) { asm volatile("csrw satp, %0" : : "r" (x)); }
    80201110:	18079073          	csrw	satp,a5
static inline void sfence_vma() { asm volatile("sfence.vma zero, zero"); }
    80201114:	12000073          	sfence.vma
    sfence_vma();
    printf("kvminithart: virtual memory enabled.\n");
    80201118:	00005517          	auipc	a0,0x5
    8020111c:	2f850513          	add	a0,a0,760 # 80206410 <_etext+0x410>
    80201120:	fffff097          	auipc	ra,0xfffff
    80201124:	034080e7          	jalr	52(ra) # 80200154 <printf>
}
    80201128:	60a2                	ld	ra,8(sp)
    8020112a:	6402                	ld	s0,0(sp)
    8020112c:	0141                	add	sp,sp,16
    8020112e:	8082                	ret

0000000080201130 <freeproc>:
    if (mappages(pt, 0x10000000, PGSIZE, 0x10000000, PTE_R | PTE_W) < 0) return -1;
    if (mappages(pt, 0x10001000, PGSIZE, 0x10001000, PTE_R | PTE_W) < 0) return -1;
    return 0;
}

static void freeproc(struct proc *p) {
    80201130:	7179                	add	sp,sp,-48
    80201132:	f406                	sd	ra,40(sp)
    80201134:	f022                	sd	s0,32(sp)
    80201136:	ec26                	sd	s1,24(sp)
    80201138:	e84a                	sd	s2,16(sp)
    8020113a:	e44e                	sd	s3,8(sp)
    8020113c:	1800                	add	s0,sp,48
    8020113e:	892a                	mv	s2,a0
    if (p->trapframe) kfree((void*)p->trapframe);
    80201140:	6128                	ld	a0,64(a0)
    80201142:	c509                	beqz	a0,8020114c <freeproc+0x1c>
    80201144:	fffff097          	auipc	ra,0xfffff
    80201148:	2fa080e7          	jalr	762(ra) # 8020043e <kfree>
    p->trapframe = 0;
    8020114c:	04093023          	sd	zero,64(s2)
    if (p->kstack) kfree((void*)p->kstack);
    80201150:	03893503          	ld	a0,56(s2)
    80201154:	e129                	bnez	a0,80201196 <freeproc+0x66>
    p->kstack = 0;
    80201156:	02093c23          	sd	zero,56(s2)
    if(p->pagetable) uvmunmap(p->pagetable, 0, 0x40000 / PGSIZE, 1);
    8020115a:	04893503          	ld	a0,72(s2)
    8020115e:	c909                	beqz	a0,80201170 <freeproc+0x40>
    80201160:	4685                	li	a3,1
    80201162:	04000613          	li	a2,64
    80201166:	4581                	li	a1,0
    80201168:	00000097          	auipc	ra,0x0
    8020116c:	e08080e7          	jalr	-504(ra) # 80200f70 <uvmunmap>
    p->pagetable = 0;
    80201170:	04093423          	sd	zero,72(s2)
    p->pid = 0;
    80201174:	00092e23          	sw	zero,28(s2)
    p->parent = 0;
    80201178:	02093023          	sd	zero,32(s2)
    p->name[0] = 0;
    8020117c:	0c090423          	sb	zero,200(s2)
    p->chan = 0;
    80201180:	02093423          	sd	zero,40(s2)
    p->killed = 0;
    80201184:	02092823          	sw	zero,48(s2)
    p->xstate = 0;
    80201188:	02092a23          	sw	zero,52(s2)
    for (int i = 0; i < NOFILE; i++) {
    8020118c:	0d890493          	add	s1,s2,216
    80201190:	15890993          	add	s3,s2,344
    80201194:	a809                	j	802011a6 <freeproc+0x76>
    if (p->kstack) kfree((void*)p->kstack);
    80201196:	fffff097          	auipc	ra,0xfffff
    8020119a:	2a8080e7          	jalr	680(ra) # 8020043e <kfree>
    8020119e:	bf65                	j	80201156 <freeproc+0x26>
    for (int i = 0; i < NOFILE; i++) {
    802011a0:	04a1                	add	s1,s1,8
    802011a2:	01348b63          	beq	s1,s3,802011b8 <freeproc+0x88>
        if (p->ofile[i]) {
    802011a6:	6088                	ld	a0,0(s1)
    802011a8:	dd65                	beqz	a0,802011a0 <freeproc+0x70>
            fileclose(p->ofile[i]);
    802011aa:	00003097          	auipc	ra,0x3
    802011ae:	89a080e7          	jalr	-1894(ra) # 80203a44 <fileclose>
            p->ofile[i] = 0;
    802011b2:	0004b023          	sd	zero,0(s1)
    802011b6:	b7ed                	j	802011a0 <freeproc+0x70>
        }
    }
    if (p->cwd) {
    802011b8:	15893503          	ld	a0,344(s2)
    802011bc:	c519                	beqz	a0,802011ca <freeproc+0x9a>
        iput(p->cwd);
    802011be:	00002097          	auipc	ra,0x2
    802011c2:	9a8080e7          	jalr	-1624(ra) # 80202b66 <iput>
        p->cwd = 0;
    802011c6:	14093c23          	sd	zero,344(s2)
    }
    p->state = UNUSED;
    802011ca:	00092c23          	sw	zero,24(s2)
}
    802011ce:	70a2                	ld	ra,40(sp)
    802011d0:	7402                	ld	s0,32(sp)
    802011d2:	64e2                	ld	s1,24(sp)
    802011d4:	6942                	ld	s2,16(sp)
    802011d6:	69a2                	ld	s3,8(sp)
    802011d8:	6145                	add	sp,sp,48
    802011da:	8082                	ret

00000000802011dc <allocproc>:
    release(&p->lock);
    if (p->entry) p->entry();
    exit(0);
}

static struct proc* allocproc(void) {
    802011dc:	7179                	add	sp,sp,-48
    802011de:	f406                	sd	ra,40(sp)
    802011e0:	f022                	sd	s0,32(sp)
    802011e2:	ec26                	sd	s1,24(sp)
    802011e4:	e84a                	sd	s2,16(sp)
    802011e6:	e44e                	sd	s3,8(sp)
    802011e8:	1800                	add	s0,sp,48
    struct proc *p;
    for(p = proc; p < &proc[NPROC]; p++) {
    802011ea:	00028497          	auipc	s1,0x28
    802011ee:	eb648493          	add	s1,s1,-330 # 802290a0 <proc>
    802011f2:	0002d917          	auipc	s2,0x2d
    802011f6:	6ae90913          	add	s2,s2,1710 # 8022e8a0 <bcache>
        acquire(&p->lock);
    802011fa:	8526                	mv	a0,s1
    802011fc:	fffff097          	auipc	ra,0xfffff
    80201200:	63e080e7          	jalr	1598(ra) # 8020083a <acquire>
        if(p->state == UNUSED) {
    80201204:	4c9c                	lw	a5,24(s1)
    80201206:	cf81                	beqz	a5,8020121e <allocproc+0x42>
            goto found;
        } else {
            release(&p->lock);
    80201208:	8526                	mv	a0,s1
    8020120a:	fffff097          	auipc	ra,0xfffff
    8020120e:	722080e7          	jalr	1826(ra) # 8020092c <release>
    for(p = proc; p < &proc[NPROC]; p++) {
    80201212:	16048493          	add	s1,s1,352
    80201216:	ff2492e3          	bne	s1,s2,802011fa <allocproc+0x1e>
        }
    }
    return 0;
    8020121a:	4481                	li	s1,0
    8020121c:	a8e5                	j	80201314 <allocproc+0x138>

found:
    p->pid = nextpid++;
    8020121e:	00006717          	auipc	a4,0x6
    80201222:	c9270713          	add	a4,a4,-878 # 80206eb0 <nextpid>
    80201226:	431c                	lw	a5,0(a4)
    80201228:	0017869b          	addw	a3,a5,1
    8020122c:	c314                	sw	a3,0(a4)
    8020122e:	ccdc                	sw	a5,28(s1)
    p->state = USED;
    80201230:	4785                	li	a5,1
    80201232:	cc9c                	sw	a5,24(s1)

    if((p->trapframe = (struct trapframe *)kalloc()) == 0){
    80201234:	fffff097          	auipc	ra,0xfffff
    80201238:	400080e7          	jalr	1024(ra) # 80200634 <kalloc>
    8020123c:	892a                	mv	s2,a0
    8020123e:	e0a8                	sd	a0,64(s1)
    80201240:	c175                	beqz	a0,80201324 <allocproc+0x148>
        freeproc(p);
        release(&p->lock);
        return 0;
    }
    memset(p->trapframe, 0, PGSIZE);
    80201242:	6605                	lui	a2,0x1
    80201244:	4581                	li	a1,0
    80201246:	fffff097          	auipc	ra,0xfffff
    8020124a:	75c080e7          	jalr	1884(ra) # 802009a2 <memset>

    if((p->pagetable = create_pagetable()) == 0) {
    8020124e:	00000097          	auipc	ra,0x0
    80201252:	b46080e7          	jalr	-1210(ra) # 80200d94 <create_pagetable>
    80201256:	892a                	mv	s2,a0
    80201258:	e4a8                	sd	a0,72(s1)
    8020125a:	c16d                	beqz	a0,8020133c <allocproc+0x160>
    if (mappages(pt, 0x80200000, (uint64)etext - 0x80200000, 0x80200000, PTE_R | PTE_X) < 0) return -1;
    8020125c:	00005997          	auipc	s3,0x5
    80201260:	da498993          	add	s3,s3,-604 # 80206000 <_etext>
    80201264:	4729                	li	a4,10
    80201266:	40100693          	li	a3,1025
    8020126a:	06d6                	sll	a3,a3,0x15
    8020126c:	bff00613          	li	a2,-1025
    80201270:	0656                	sll	a2,a2,0x15
    80201272:	964e                	add	a2,a2,s3
    80201274:	85b6                	mv	a1,a3
    80201276:	00000097          	auipc	ra,0x0
    8020127a:	a8c080e7          	jalr	-1396(ra) # 80200d02 <mappages>
    8020127e:	0c054b63          	bltz	a0,80201354 <allocproc+0x178>
    if (mappages(pt, (uint64)etext, 0x88000000 - (uint64)etext, (uint64)etext, PTE_R | PTE_W) < 0) return -1;
    80201282:	4719                	li	a4,6
    80201284:	86ce                	mv	a3,s3
    80201286:	4645                	li	a2,17
    80201288:	066e                	sll	a2,a2,0x1b
    8020128a:	41360633          	sub	a2,a2,s3
    8020128e:	85ce                	mv	a1,s3
    80201290:	854a                	mv	a0,s2
    80201292:	00000097          	auipc	ra,0x0
    80201296:	a70080e7          	jalr	-1424(ra) # 80200d02 <mappages>
    8020129a:	0a054d63          	bltz	a0,80201354 <allocproc+0x178>
    if (mappages(pt, 0x10000000, PGSIZE, 0x10000000, PTE_R | PTE_W) < 0) return -1;
    8020129e:	4719                	li	a4,6
    802012a0:	100006b7          	lui	a3,0x10000
    802012a4:	6605                	lui	a2,0x1
    802012a6:	100005b7          	lui	a1,0x10000
    802012aa:	854a                	mv	a0,s2
    802012ac:	00000097          	auipc	ra,0x0
    802012b0:	a56080e7          	jalr	-1450(ra) # 80200d02 <mappages>
    802012b4:	0a054063          	bltz	a0,80201354 <allocproc+0x178>
    if (mappages(pt, 0x10001000, PGSIZE, 0x10001000, PTE_R | PTE_W) < 0) return -1;
    802012b8:	4719                	li	a4,6
    802012ba:	100016b7          	lui	a3,0x10001
    802012be:	6605                	lui	a2,0x1
    802012c0:	100015b7          	lui	a1,0x10001
    802012c4:	854a                	mv	a0,s2
    802012c6:	00000097          	auipc	ra,0x0
    802012ca:	a3c080e7          	jalr	-1476(ra) # 80200d02 <mappages>
        freeproc(p);
        release(&p->lock);
        return 0;
    }
    
    if (uvm_kmap(p->pagetable) < 0) {
    802012ce:	08054363          	bltz	a0,80201354 <allocproc+0x178>
        freeproc(p);
        release(&p->lock);
        return 0;
    }

    if((p->kstack = (uint64)kalloc()) == 0){
    802012d2:	fffff097          	auipc	ra,0xfffff
    802012d6:	362080e7          	jalr	866(ra) # 80200634 <kalloc>
    802012da:	892a                	mv	s2,a0
    802012dc:	fc88                	sd	a0,56(s1)
    802012de:	cd59                	beqz	a0,8020137c <allocproc+0x1a0>
        freeproc(p);
        release(&p->lock);
        return 0;
    }
    memset((void*)p->kstack, 0, PGSIZE);
    802012e0:	6605                	lui	a2,0x1
    802012e2:	4581                	li	a1,0
    802012e4:	fffff097          	auipc	ra,0xfffff
    802012e8:	6be080e7          	jalr	1726(ra) # 802009a2 <memset>

    p->context.sp = p->kstack + PGSIZE;
    802012ec:	7c9c                	ld	a5,56(s1)
    802012ee:	6705                	lui	a4,0x1
    802012f0:	97ba                	add	a5,a5,a4
    802012f2:	ecbc                	sd	a5,88(s1)
    p->context.ra = (uint64)proc_entry;
    802012f4:	00000797          	auipc	a5,0x0
    802012f8:	6ac78793          	add	a5,a5,1708 # 802019a0 <proc_entry>
    802012fc:	e8bc                	sd	a5,80(s1)
    
    for (int i = 0; i < NOFILE; i++) {
    802012fe:	0d848793          	add	a5,s1,216
    80201302:	15848713          	add	a4,s1,344
        p->ofile[i] = 0;
    80201306:	0007b023          	sd	zero,0(a5)
    for (int i = 0; i < NOFILE; i++) {
    8020130a:	07a1                	add	a5,a5,8
    8020130c:	fee79de3          	bne	a5,a4,80201306 <allocproc+0x12a>
    }
    p->cwd = 0;
    80201310:	1404bc23          	sd	zero,344(s1)

    return p;
}
    80201314:	8526                	mv	a0,s1
    80201316:	70a2                	ld	ra,40(sp)
    80201318:	7402                	ld	s0,32(sp)
    8020131a:	64e2                	ld	s1,24(sp)
    8020131c:	6942                	ld	s2,16(sp)
    8020131e:	69a2                	ld	s3,8(sp)
    80201320:	6145                	add	sp,sp,48
    80201322:	8082                	ret
        freeproc(p);
    80201324:	8526                	mv	a0,s1
    80201326:	00000097          	auipc	ra,0x0
    8020132a:	e0a080e7          	jalr	-502(ra) # 80201130 <freeproc>
        release(&p->lock);
    8020132e:	8526                	mv	a0,s1
    80201330:	fffff097          	auipc	ra,0xfffff
    80201334:	5fc080e7          	jalr	1532(ra) # 8020092c <release>
        return 0;
    80201338:	84ca                	mv	s1,s2
    8020133a:	bfe9                	j	80201314 <allocproc+0x138>
        freeproc(p);
    8020133c:	8526                	mv	a0,s1
    8020133e:	00000097          	auipc	ra,0x0
    80201342:	df2080e7          	jalr	-526(ra) # 80201130 <freeproc>
        release(&p->lock);
    80201346:	8526                	mv	a0,s1
    80201348:	fffff097          	auipc	ra,0xfffff
    8020134c:	5e4080e7          	jalr	1508(ra) # 8020092c <release>
        return 0;
    80201350:	84ca                	mv	s1,s2
    80201352:	b7c9                	j	80201314 <allocproc+0x138>
        printf("allocproc: uvm_kmap failed\n"); // Add print
    80201354:	00005517          	auipc	a0,0x5
    80201358:	0e450513          	add	a0,a0,228 # 80206438 <_etext+0x438>
    8020135c:	fffff097          	auipc	ra,0xfffff
    80201360:	df8080e7          	jalr	-520(ra) # 80200154 <printf>
        freeproc(p);
    80201364:	8526                	mv	a0,s1
    80201366:	00000097          	auipc	ra,0x0
    8020136a:	dca080e7          	jalr	-566(ra) # 80201130 <freeproc>
        release(&p->lock);
    8020136e:	8526                	mv	a0,s1
    80201370:	fffff097          	auipc	ra,0xfffff
    80201374:	5bc080e7          	jalr	1468(ra) # 8020092c <release>
        return 0;
    80201378:	4481                	li	s1,0
    8020137a:	bf69                	j	80201314 <allocproc+0x138>
        freeproc(p);
    8020137c:	8526                	mv	a0,s1
    8020137e:	00000097          	auipc	ra,0x0
    80201382:	db2080e7          	jalr	-590(ra) # 80201130 <freeproc>
        release(&p->lock);
    80201386:	8526                	mv	a0,s1
    80201388:	fffff097          	auipc	ra,0xfffff
    8020138c:	5a4080e7          	jalr	1444(ra) # 8020092c <release>
        return 0;
    80201390:	84ca                	mv	s1,s2
    80201392:	b749                	j	80201314 <allocproc+0x138>

0000000080201394 <mycpu>:
struct cpu* mycpu(void) { return &cpus[0]; }
    80201394:	1141                	add	sp,sp,-16
    80201396:	e422                	sd	s0,8(sp)
    80201398:	0800                	add	s0,sp,16
    8020139a:	00028517          	auipc	a0,0x28
    8020139e:	c8650513          	add	a0,a0,-890 # 80229020 <cpus>
    802013a2:	6422                	ld	s0,8(sp)
    802013a4:	0141                	add	sp,sp,16
    802013a6:	8082                	ret

00000000802013a8 <myproc>:
struct proc* myproc(void) { 
    802013a8:	1101                	add	sp,sp,-32
    802013aa:	ec06                	sd	ra,24(sp)
    802013ac:	e822                	sd	s0,16(sp)
    802013ae:	e426                	sd	s1,8(sp)
    802013b0:	1000                	add	s0,sp,32
    push_off(); 
    802013b2:	fffff097          	auipc	ra,0xfffff
    802013b6:	43c080e7          	jalr	1084(ra) # 802007ee <push_off>
    struct proc *p = cpus[0].proc; 
    802013ba:	00028497          	auipc	s1,0x28
    802013be:	c664b483          	ld	s1,-922(s1) # 80229020 <cpus>
    pop_off(); 
    802013c2:	fffff097          	auipc	ra,0xfffff
    802013c6:	4ec080e7          	jalr	1260(ra) # 802008ae <pop_off>
}
    802013ca:	8526                	mv	a0,s1
    802013cc:	60e2                	ld	ra,24(sp)
    802013ce:	6442                	ld	s0,16(sp)
    802013d0:	64a2                	ld	s1,8(sp)
    802013d2:	6105                	add	sp,sp,32
    802013d4:	8082                	ret

00000000802013d6 <procinit>:

void procinit(void) {
    802013d6:	7179                	add	sp,sp,-48
    802013d8:	f406                	sd	ra,40(sp)
    802013da:	f022                	sd	s0,32(sp)
    802013dc:	ec26                	sd	s1,24(sp)
    802013de:	e84a                	sd	s2,16(sp)
    802013e0:	e44e                	sd	s3,8(sp)
    802013e2:	1800                	add	s0,sp,48
    for (int i = 0; i < NPROC; i++) {
    802013e4:	00028497          	auipc	s1,0x28
    802013e8:	cbc48493          	add	s1,s1,-836 # 802290a0 <proc>
    802013ec:	0002d997          	auipc	s3,0x2d
    802013f0:	4b498993          	add	s3,s3,1204 # 8022e8a0 <bcache>
        spinlock_init(&proc[i].lock, "proc");
    802013f4:	00005917          	auipc	s2,0x5
    802013f8:	06490913          	add	s2,s2,100 # 80206458 <_etext+0x458>
    802013fc:	85ca                	mv	a1,s2
    802013fe:	8526                	mv	a0,s1
    80201400:	fffff097          	auipc	ra,0xfffff
    80201404:	3d8080e7          	jalr	984(ra) # 802007d8 <spinlock_init>
        proc[i].state = UNUSED;
    80201408:	0004ac23          	sw	zero,24(s1)
    for (int i = 0; i < NPROC; i++) {
    8020140c:	16048493          	add	s1,s1,352
    80201410:	ff3496e3          	bne	s1,s3,802013fc <procinit+0x26>
    }
    printf("procinit: complete\n");
    80201414:	00005517          	auipc	a0,0x5
    80201418:	04c50513          	add	a0,a0,76 # 80206460 <_etext+0x460>
    8020141c:	fffff097          	auipc	ra,0xfffff
    80201420:	d38080e7          	jalr	-712(ra) # 80200154 <printf>
}
    80201424:	70a2                	ld	ra,40(sp)
    80201426:	7402                	ld	s0,32(sp)
    80201428:	64e2                	ld	s1,24(sp)
    8020142a:	6942                	ld	s2,16(sp)
    8020142c:	69a2                	ld	s3,8(sp)
    8020142e:	6145                	add	sp,sp,48
    80201430:	8082                	ret

0000000080201432 <create_process>:

int create_process(void (*entry)(void)) {
    80201432:	1101                	add	sp,sp,-32
    80201434:	ec06                	sd	ra,24(sp)
    80201436:	e822                	sd	s0,16(sp)
    80201438:	e426                	sd	s1,8(sp)
    8020143a:	e04a                	sd	s2,0(sp)
    8020143c:	1000                	add	s0,sp,32
    8020143e:	892a                	mv	s2,a0
    struct proc *p = allocproc();
    80201440:	00000097          	auipc	ra,0x0
    80201444:	d9c080e7          	jalr	-612(ra) # 802011dc <allocproc>
    if (p == 0) return -1;
    80201448:	cd3d                	beqz	a0,802014c6 <create_process+0x94>
    8020144a:	84aa                	mv	s1,a0
    
    char *mem = kalloc();
    8020144c:	fffff097          	auipc	ra,0xfffff
    80201450:	1e8080e7          	jalr	488(ra) # 80200634 <kalloc>
    80201454:	862a                	mv	a2,a0
    if(!mem) { 
    80201456:	c139                	beqz	a0,8020149c <create_process+0x6a>
        freeproc(p); 
        release(&p->lock); 
        return -1; 
    }
    map_page(p->pagetable, 0, (uint64)mem, PTE_W|PTE_R|PTE_X|PTE_U); 
    80201458:	46f9                	li	a3,30
    8020145a:	4581                	li	a1,0
    8020145c:	64a8                	ld	a0,72(s1)
    8020145e:	00000097          	auipc	ra,0x0
    80201462:	97e080e7          	jalr	-1666(ra) # 80200ddc <map_page>
    
    p->entry = entry;
    80201466:	0d24b023          	sd	s2,192(s1)
    p->parent = 0; 
    8020146a:	0204b023          	sd	zero,32(s1)
    p->trapframe->epc = 0; 
    8020146e:	60bc                	ld	a5,64(s1)
    80201470:	0007bc23          	sd	zero,24(a5)
    p->trapframe->sp = PGSIZE; 
    80201474:	60bc                	ld	a5,64(s1)
    80201476:	6705                	lui	a4,0x1
    80201478:	fb98                	sd	a4,48(a5)
    
    if (p->cwd == 0) p->cwd = iget(ROOTDEV, ROOTINO);
    8020147a:	1584b783          	ld	a5,344(s1)
    8020147e:	cb9d                	beqz	a5,802014b4 <create_process+0x82>
    
    p->state = RUNNABLE;
    80201480:	478d                	li	a5,3
    80201482:	cc9c                	sw	a5,24(s1)
    release(&p->lock);
    80201484:	8526                	mv	a0,s1
    80201486:	fffff097          	auipc	ra,0xfffff
    8020148a:	4a6080e7          	jalr	1190(ra) # 8020092c <release>
    return p->pid;
    8020148e:	4cc8                	lw	a0,28(s1)
}
    80201490:	60e2                	ld	ra,24(sp)
    80201492:	6442                	ld	s0,16(sp)
    80201494:	64a2                	ld	s1,8(sp)
    80201496:	6902                	ld	s2,0(sp)
    80201498:	6105                	add	sp,sp,32
    8020149a:	8082                	ret
        freeproc(p); 
    8020149c:	8526                	mv	a0,s1
    8020149e:	00000097          	auipc	ra,0x0
    802014a2:	c92080e7          	jalr	-878(ra) # 80201130 <freeproc>
        release(&p->lock); 
    802014a6:	8526                	mv	a0,s1
    802014a8:	fffff097          	auipc	ra,0xfffff
    802014ac:	484080e7          	jalr	1156(ra) # 8020092c <release>
        return -1; 
    802014b0:	557d                	li	a0,-1
    802014b2:	bff9                	j	80201490 <create_process+0x5e>
    if (p->cwd == 0) p->cwd = iget(ROOTDEV, ROOTINO);
    802014b4:	4585                	li	a1,1
    802014b6:	4505                	li	a0,1
    802014b8:	00001097          	auipc	ra,0x1
    802014bc:	2ac080e7          	jalr	684(ra) # 80202764 <iget>
    802014c0:	14a4bc23          	sd	a0,344(s1)
    802014c4:	bf75                	j	80201480 <create_process+0x4e>
    if (p == 0) return -1;
    802014c6:	557d                	li	a0,-1
    802014c8:	b7e1                	j	80201490 <create_process+0x5e>

00000000802014ca <fork>:

int fork(void) {
    802014ca:	7139                	add	sp,sp,-64
    802014cc:	fc06                	sd	ra,56(sp)
    802014ce:	f822                	sd	s0,48(sp)
    802014d0:	f426                	sd	s1,40(sp)
    802014d2:	f04a                	sd	s2,32(sp)
    802014d4:	ec4e                	sd	s3,24(sp)
    802014d6:	e852                	sd	s4,16(sp)
    802014d8:	e456                	sd	s5,8(sp)
    802014da:	0080                	add	s0,sp,64
    int i, pid;
    struct proc *np;
    struct proc *p = myproc();
    802014dc:	00000097          	auipc	ra,0x0
    802014e0:	ecc080e7          	jalr	-308(ra) # 802013a8 <myproc>
    802014e4:	8aaa                	mv	s5,a0

    if ((np = allocproc()) == 0) return -1;
    802014e6:	00000097          	auipc	ra,0x0
    802014ea:	cf6080e7          	jalr	-778(ra) # 802011dc <allocproc>
    802014ee:	c575                	beqz	a0,802015da <fork+0x110>
    802014f0:	8a2a                	mv	s4,a0

    if(uvmcopy(p->pagetable, np->pagetable, 0x40000) < 0) {
    802014f2:	00040637          	lui	a2,0x40
    802014f6:	652c                	ld	a1,72(a0)
    802014f8:	048ab503          	ld	a0,72(s5) # 1048 <_start-0x801fefb8>
    802014fc:	00000097          	auipc	ra,0x0
    80201500:	9aa080e7          	jalr	-1622(ra) # 80200ea6 <uvmcopy>
    80201504:	04054a63          	bltz	a0,80201558 <fork+0x8e>
        freeproc(np);
        release(&np->lock);
        return -1;
    }

    *(np->trapframe) = *(p->trapframe);
    80201508:	040ab683          	ld	a3,64(s5)
    8020150c:	87b6                	mv	a5,a3
    8020150e:	040a3703          	ld	a4,64(s4) # 1040 <_start-0x801fefc0>
    80201512:	12068693          	add	a3,a3,288 # 10001120 <_start-0x701feee0>
    80201516:	0007b803          	ld	a6,0(a5)
    8020151a:	6788                	ld	a0,8(a5)
    8020151c:	6b8c                	ld	a1,16(a5)
    8020151e:	6f90                	ld	a2,24(a5)
    80201520:	01073023          	sd	a6,0(a4) # 1000 <_start-0x801ff000>
    80201524:	e708                	sd	a0,8(a4)
    80201526:	eb0c                	sd	a1,16(a4)
    80201528:	ef10                	sd	a2,24(a4)
    8020152a:	02078793          	add	a5,a5,32
    8020152e:	02070713          	add	a4,a4,32
    80201532:	fed792e3          	bne	a5,a3,80201516 <fork+0x4c>
    np->trapframe->a0 = 0; 
    80201536:	040a3783          	ld	a5,64(s4)
    8020153a:	0607b823          	sd	zero,112(a5)
    np->context.ra = (uint64)fork_ret;
    8020153e:	00000797          	auipc	a5,0x0
    80201542:	4f678793          	add	a5,a5,1270 # 80201a34 <fork_ret>
    80201546:	04fa3823          	sd	a5,80(s4)

    for (i = 0; i < NOFILE; i++)
    8020154a:	0d8a8493          	add	s1,s5,216
    8020154e:	0d8a0913          	add	s2,s4,216
    80201552:	158a8993          	add	s3,s5,344
    80201556:	a00d                	j	80201578 <fork+0xae>
        freeproc(np);
    80201558:	8552                	mv	a0,s4
    8020155a:	00000097          	auipc	ra,0x0
    8020155e:	bd6080e7          	jalr	-1066(ra) # 80201130 <freeproc>
        release(&np->lock);
    80201562:	8552                	mv	a0,s4
    80201564:	fffff097          	auipc	ra,0xfffff
    80201568:	3c8080e7          	jalr	968(ra) # 8020092c <release>
        return -1;
    8020156c:	54fd                	li	s1,-1
    8020156e:	a8a1                	j	802015c6 <fork+0xfc>
    for (i = 0; i < NOFILE; i++)
    80201570:	04a1                	add	s1,s1,8
    80201572:	0921                	add	s2,s2,8
    80201574:	01348b63          	beq	s1,s3,8020158a <fork+0xc0>
        if (p->ofile[i]) np->ofile[i] = filedup(p->ofile[i]);
    80201578:	6088                	ld	a0,0(s1)
    8020157a:	d97d                	beqz	a0,80201570 <fork+0xa6>
    8020157c:	00002097          	auipc	ra,0x2
    80201580:	472080e7          	jalr	1138(ra) # 802039ee <filedup>
    80201584:	00a93023          	sd	a0,0(s2)
    80201588:	b7e5                	j	80201570 <fork+0xa6>
    
    if (p->cwd) np->cwd = idup(p->cwd);
    8020158a:	158ab503          	ld	a0,344(s5)
    8020158e:	c519                	beqz	a0,8020159c <fork+0xd2>
    80201590:	00001097          	auipc	ra,0x1
    80201594:	358080e7          	jalr	856(ra) # 802028e8 <idup>
    80201598:	14aa3c23          	sd	a0,344(s4)
    safestrcpy(np->name, p->name, sizeof(p->name));
    8020159c:	4641                	li	a2,16
    8020159e:	0c8a8593          	add	a1,s5,200
    802015a2:	0c8a0513          	add	a0,s4,200
    802015a6:	fffff097          	auipc	ra,0xfffff
    802015aa:	546080e7          	jalr	1350(ra) # 80200aec <safestrcpy>
    
    pid = np->pid;
    802015ae:	01ca2483          	lw	s1,28(s4)
    np->parent = p;
    802015b2:	035a3023          	sd	s5,32(s4)
    
    np->state = RUNNABLE;
    802015b6:	478d                	li	a5,3
    802015b8:	00fa2c23          	sw	a5,24(s4)
    release(&np->lock);
    802015bc:	8552                	mv	a0,s4
    802015be:	fffff097          	auipc	ra,0xfffff
    802015c2:	36e080e7          	jalr	878(ra) # 8020092c <release>
    return pid;
}
    802015c6:	8526                	mv	a0,s1
    802015c8:	70e2                	ld	ra,56(sp)
    802015ca:	7442                	ld	s0,48(sp)
    802015cc:	74a2                	ld	s1,40(sp)
    802015ce:	7902                	ld	s2,32(sp)
    802015d0:	69e2                	ld	s3,24(sp)
    802015d2:	6a42                	ld	s4,16(sp)
    802015d4:	6aa2                	ld	s5,8(sp)
    802015d6:	6121                	add	sp,sp,64
    802015d8:	8082                	ret
    if ((np = allocproc()) == 0) return -1;
    802015da:	54fd                	li	s1,-1
    802015dc:	b7ed                	j	802015c6 <fork+0xfc>

00000000802015de <scheduler>:

void scheduler(void) {
    802015de:	715d                	add	sp,sp,-80
    802015e0:	e486                	sd	ra,72(sp)
    802015e2:	e0a2                	sd	s0,64(sp)
    802015e4:	fc26                	sd	s1,56(sp)
    802015e6:	f84a                	sd	s2,48(sp)
    802015e8:	f44e                	sd	s3,40(sp)
    802015ea:	f052                	sd	s4,32(sp)
    802015ec:	ec56                	sd	s5,24(sp)
    802015ee:	e85a                	sd	s6,16(sp)
    802015f0:	e45e                	sd	s7,8(sp)
    802015f2:	e062                	sd	s8,0(sp)
    802015f4:	0880                	add	s0,sp,80
    struct cpu *c = mycpu();
    c->proc = 0;
    802015f6:	00028797          	auipc	a5,0x28
    802015fa:	a207b523          	sd	zero,-1494(a5) # 80229020 <cpus>
    
    w_satp(MAKE_SATP(kernel_pagetable)); 
    802015fe:	0000f797          	auipc	a5,0xf
    80201602:	a027b783          	ld	a5,-1534(a5) # 80210000 <kernel_pagetable>
    80201606:	83b1                	srl	a5,a5,0xc
    80201608:	577d                	li	a4,-1
    8020160a:	177e                	sll	a4,a4,0x3f
    8020160c:	8fd9                	or	a5,a5,a4
static inline void w_satp(uint64 x) { asm volatile("csrw satp, %0" : : "r" (x)); }
    8020160e:	18079073          	csrw	satp,a5

    printf("scheduler: starting on cpu 0\n");
    80201612:	00005517          	auipc	a0,0x5
    80201616:	e6650513          	add	a0,a0,-410 # 80206478 <_etext+0x478>
    8020161a:	fffff097          	auipc	ra,0xfffff
    8020161e:	b3a080e7          	jalr	-1222(ra) # 80200154 <printf>
        intr_on();
        for (struct proc *p = proc; p < &proc[NPROC]; p++) {
            acquire(&p->lock);
            if (p->state == RUNNABLE) {
                p->state = RUNNING;
                c->proc = p; 
    80201622:	00028a97          	auipc	s5,0x28
    80201626:	9fea8a93          	add	s5,s5,-1538 # 80229020 <cpus>
                
                w_satp(MAKE_SATP(p->pagetable)); 
    8020162a:	5a7d                	li	s4,-1
    8020162c:	1a7e                	sll	s4,s4,0x3f
                sfence_vma();
                
                swtch(&c->context, &p->context);
    8020162e:	00028c17          	auipc	s8,0x28
    80201632:	9fac0c13          	add	s8,s8,-1542 # 80229028 <cpus+0x8>
                
                w_satp(MAKE_SATP(kernel_pagetable)); 
    80201636:	0000fb97          	auipc	s7,0xf
    8020163a:	9cab8b93          	add	s7,s7,-1590 # 80210000 <kernel_pagetable>
static inline uint64 r_sstatus() { uint64 x; asm volatile("csrr %0, sstatus" : "=r" (x)); return x; }
    8020163e:	100027f3          	csrr	a5,sstatus
    80201642:	0027e793          	or	a5,a5,2
static inline void w_sstatus(uint64 x) { asm volatile("csrw sstatus, %0" : : "r" (x)); }
    80201646:	10079073          	csrw	sstatus,a5
        for (struct proc *p = proc; p < &proc[NPROC]; p++) {
    8020164a:	00028497          	auipc	s1,0x28
    8020164e:	a5648493          	add	s1,s1,-1450 # 802290a0 <proc>
            if (p->state == RUNNABLE) {
    80201652:	498d                	li	s3,3
                p->state = RUNNING;
    80201654:	4b11                	li	s6,4
        for (struct proc *p = proc; p < &proc[NPROC]; p++) {
    80201656:	0002d917          	auipc	s2,0x2d
    8020165a:	24a90913          	add	s2,s2,586 # 8022e8a0 <bcache>
    8020165e:	a811                	j	80201672 <scheduler+0x94>
                sfence_vma();
                c->proc = 0; 
            }
            release(&p->lock);
    80201660:	8526                	mv	a0,s1
    80201662:	fffff097          	auipc	ra,0xfffff
    80201666:	2ca080e7          	jalr	714(ra) # 8020092c <release>
        for (struct proc *p = proc; p < &proc[NPROC]; p++) {
    8020166a:	16048493          	add	s1,s1,352
    8020166e:	fd2488e3          	beq	s1,s2,8020163e <scheduler+0x60>
            acquire(&p->lock);
    80201672:	8526                	mv	a0,s1
    80201674:	fffff097          	auipc	ra,0xfffff
    80201678:	1c6080e7          	jalr	454(ra) # 8020083a <acquire>
            if (p->state == RUNNABLE) {
    8020167c:	4c9c                	lw	a5,24(s1)
    8020167e:	ff3791e3          	bne	a5,s3,80201660 <scheduler+0x82>
                p->state = RUNNING;
    80201682:	0164ac23          	sw	s6,24(s1)
                c->proc = p; 
    80201686:	009ab023          	sd	s1,0(s5)
                w_satp(MAKE_SATP(p->pagetable)); 
    8020168a:	64bc                	ld	a5,72(s1)
    8020168c:	83b1                	srl	a5,a5,0xc
    8020168e:	0147e7b3          	or	a5,a5,s4
static inline void w_satp(uint64 x) { asm volatile("csrw satp, %0" : : "r" (x)); }
    80201692:	18079073          	csrw	satp,a5
static inline void sfence_vma() { asm volatile("sfence.vma zero, zero"); }
    80201696:	12000073          	sfence.vma
                swtch(&c->context, &p->context);
    8020169a:	05048593          	add	a1,s1,80
    8020169e:	8562                	mv	a0,s8
    802016a0:	00003097          	auipc	ra,0x3
    802016a4:	2ce080e7          	jalr	718(ra) # 8020496e <swtch>
                w_satp(MAKE_SATP(kernel_pagetable)); 
    802016a8:	000bb783          	ld	a5,0(s7)
    802016ac:	83b1                	srl	a5,a5,0xc
    802016ae:	0147e7b3          	or	a5,a5,s4
static inline void w_satp(uint64 x) { asm volatile("csrw satp, %0" : : "r" (x)); }
    802016b2:	18079073          	csrw	satp,a5
static inline void sfence_vma() { asm volatile("sfence.vma zero, zero"); }
    802016b6:	12000073          	sfence.vma
                c->proc = 0; 
    802016ba:	000ab023          	sd	zero,0(s5)
    802016be:	b74d                	j	80201660 <scheduler+0x82>

00000000802016c0 <sched>:
        }
    }
}

void sched(void) {
    802016c0:	1101                	add	sp,sp,-32
    802016c2:	ec06                	sd	ra,24(sp)
    802016c4:	e822                	sd	s0,16(sp)
    802016c6:	e426                	sd	s1,8(sp)
    802016c8:	e04a                	sd	s2,0(sp)
    802016ca:	1000                	add	s0,sp,32
    int intena = mycpu()->intena;
    802016cc:	00028497          	auipc	s1,0x28
    802016d0:	95448493          	add	s1,s1,-1708 # 80229020 <cpus>
    802016d4:	07c4a903          	lw	s2,124(s1)
    swtch(&myproc()->context, &mycpu()->context);
    802016d8:	00000097          	auipc	ra,0x0
    802016dc:	cd0080e7          	jalr	-816(ra) # 802013a8 <myproc>
    802016e0:	00028597          	auipc	a1,0x28
    802016e4:	94858593          	add	a1,a1,-1720 # 80229028 <cpus+0x8>
    802016e8:	05050513          	add	a0,a0,80
    802016ec:	00003097          	auipc	ra,0x3
    802016f0:	282080e7          	jalr	642(ra) # 8020496e <swtch>
    mycpu()->intena = intena;
    802016f4:	0724ae23          	sw	s2,124(s1)
}
    802016f8:	60e2                	ld	ra,24(sp)
    802016fa:	6442                	ld	s0,16(sp)
    802016fc:	64a2                	ld	s1,8(sp)
    802016fe:	6902                	ld	s2,0(sp)
    80201700:	6105                	add	sp,sp,32
    80201702:	8082                	ret

0000000080201704 <yield>:

void yield(void) {
    80201704:	1101                	add	sp,sp,-32
    80201706:	ec06                	sd	ra,24(sp)
    80201708:	e822                	sd	s0,16(sp)
    8020170a:	e426                	sd	s1,8(sp)
    8020170c:	1000                	add	s0,sp,32
    struct proc *p = myproc();
    8020170e:	00000097          	auipc	ra,0x0
    80201712:	c9a080e7          	jalr	-870(ra) # 802013a8 <myproc>
    80201716:	84aa                	mv	s1,a0
    acquire(&p->lock);
    80201718:	fffff097          	auipc	ra,0xfffff
    8020171c:	122080e7          	jalr	290(ra) # 8020083a <acquire>
    p->state = RUNNABLE;
    80201720:	478d                	li	a5,3
    80201722:	cc9c                	sw	a5,24(s1)
    sched();
    80201724:	00000097          	auipc	ra,0x0
    80201728:	f9c080e7          	jalr	-100(ra) # 802016c0 <sched>
    release(&p->lock);
    8020172c:	8526                	mv	a0,s1
    8020172e:	fffff097          	auipc	ra,0xfffff
    80201732:	1fe080e7          	jalr	510(ra) # 8020092c <release>
}
    80201736:	60e2                	ld	ra,24(sp)
    80201738:	6442                	ld	s0,16(sp)
    8020173a:	64a2                	ld	s1,8(sp)
    8020173c:	6105                	add	sp,sp,32
    8020173e:	8082                	ret

0000000080201740 <sleep>:
    }
}

void wait_process(int *status) { wait(status); }

void sleep(void *chan, struct spinlock *lk) {
    80201740:	7179                	add	sp,sp,-48
    80201742:	f406                	sd	ra,40(sp)
    80201744:	f022                	sd	s0,32(sp)
    80201746:	ec26                	sd	s1,24(sp)
    80201748:	e84a                	sd	s2,16(sp)
    8020174a:	e44e                	sd	s3,8(sp)
    8020174c:	1800                	add	s0,sp,48
    8020174e:	89aa                	mv	s3,a0
    80201750:	892e                	mv	s2,a1
    struct proc *p = myproc();
    80201752:	00000097          	auipc	ra,0x0
    80201756:	c56080e7          	jalr	-938(ra) # 802013a8 <myproc>
    8020175a:	84aa                	mv	s1,a0
    if (lk != &p->lock) { acquire(&p->lock); release(lk); }
    8020175c:	05250663          	beq	a0,s2,802017a8 <sleep+0x68>
    80201760:	fffff097          	auipc	ra,0xfffff
    80201764:	0da080e7          	jalr	218(ra) # 8020083a <acquire>
    80201768:	854a                	mv	a0,s2
    8020176a:	fffff097          	auipc	ra,0xfffff
    8020176e:	1c2080e7          	jalr	450(ra) # 8020092c <release>
    p->chan = chan;
    80201772:	0334b423          	sd	s3,40(s1)
    p->state = SLEEPING;
    80201776:	4789                	li	a5,2
    80201778:	cc9c                	sw	a5,24(s1)
    sched();
    8020177a:	00000097          	auipc	ra,0x0
    8020177e:	f46080e7          	jalr	-186(ra) # 802016c0 <sched>
    p->chan = 0;
    80201782:	0204b423          	sd	zero,40(s1)
    if (lk != &p->lock) { release(&p->lock); acquire(lk); }
    80201786:	8526                	mv	a0,s1
    80201788:	fffff097          	auipc	ra,0xfffff
    8020178c:	1a4080e7          	jalr	420(ra) # 8020092c <release>
    80201790:	854a                	mv	a0,s2
    80201792:	fffff097          	auipc	ra,0xfffff
    80201796:	0a8080e7          	jalr	168(ra) # 8020083a <acquire>
}
    8020179a:	70a2                	ld	ra,40(sp)
    8020179c:	7402                	ld	s0,32(sp)
    8020179e:	64e2                	ld	s1,24(sp)
    802017a0:	6942                	ld	s2,16(sp)
    802017a2:	69a2                	ld	s3,8(sp)
    802017a4:	6145                	add	sp,sp,48
    802017a6:	8082                	ret
    p->chan = chan;
    802017a8:	03353423          	sd	s3,40(a0)
    p->state = SLEEPING;
    802017ac:	4789                	li	a5,2
    802017ae:	cd1c                	sw	a5,24(a0)
    sched();
    802017b0:	00000097          	auipc	ra,0x0
    802017b4:	f10080e7          	jalr	-240(ra) # 802016c0 <sched>
    p->chan = 0;
    802017b8:	0204b423          	sd	zero,40(s1)
    if (lk != &p->lock) { release(&p->lock); acquire(lk); }
    802017bc:	bff9                	j	8020179a <sleep+0x5a>

00000000802017be <wait>:
int wait(int *status) {
    802017be:	715d                	add	sp,sp,-80
    802017c0:	e486                	sd	ra,72(sp)
    802017c2:	e0a2                	sd	s0,64(sp)
    802017c4:	fc26                	sd	s1,56(sp)
    802017c6:	f84a                	sd	s2,48(sp)
    802017c8:	f44e                	sd	s3,40(sp)
    802017ca:	f052                	sd	s4,32(sp)
    802017cc:	ec56                	sd	s5,24(sp)
    802017ce:	e85a                	sd	s6,16(sp)
    802017d0:	e45e                	sd	s7,8(sp)
    802017d2:	0880                	add	s0,sp,80
    802017d4:	8b2a                	mv	s6,a0
    struct proc *p = myproc();
    802017d6:	00000097          	auipc	ra,0x0
    802017da:	bd2080e7          	jalr	-1070(ra) # 802013a8 <myproc>
    802017de:	892a                	mv	s2,a0
    acquire(&p->lock);
    802017e0:	fffff097          	auipc	ra,0xfffff
    802017e4:	05a080e7          	jalr	90(ra) # 8020083a <acquire>
        havekids = 0;
    802017e8:	4b81                	li	s7,0
                if (cp->state == ZOMBIE) {
    802017ea:	4a15                	li	s4,5
                havekids = 1;
    802017ec:	4a85                	li	s5,1
        for (struct proc *cp = proc; cp < &proc[NPROC]; cp++) {
    802017ee:	0002d997          	auipc	s3,0x2d
    802017f2:	0b298993          	add	s3,s3,178 # 8022e8a0 <bcache>
    802017f6:	a059                	j	8020187c <wait+0xbe>
                    pid = cp->pid;
    802017f8:	01c4a983          	lw	s3,28(s1)
                    if (status) *status = cp->xstate;
    802017fc:	000b0563          	beqz	s6,80201806 <wait+0x48>
    80201800:	58dc                	lw	a5,52(s1)
    80201802:	00fb2023          	sw	a5,0(s6) # 1000 <_start-0x801ff000>
                    freeproc(cp);
    80201806:	8526                	mv	a0,s1
    80201808:	00000097          	auipc	ra,0x0
    8020180c:	928080e7          	jalr	-1752(ra) # 80201130 <freeproc>
                    release(&cp->lock);
    80201810:	8526                	mv	a0,s1
    80201812:	fffff097          	auipc	ra,0xfffff
    80201816:	11a080e7          	jalr	282(ra) # 8020092c <release>
                    release(&p->lock);
    8020181a:	854a                	mv	a0,s2
    8020181c:	fffff097          	auipc	ra,0xfffff
    80201820:	110080e7          	jalr	272(ra) # 8020092c <release>
}
    80201824:	854e                	mv	a0,s3
    80201826:	60a6                	ld	ra,72(sp)
    80201828:	6406                	ld	s0,64(sp)
    8020182a:	74e2                	ld	s1,56(sp)
    8020182c:	7942                	ld	s2,48(sp)
    8020182e:	79a2                	ld	s3,40(sp)
    80201830:	7a02                	ld	s4,32(sp)
    80201832:	6ae2                	ld	s5,24(sp)
    80201834:	6b42                	ld	s6,16(sp)
    80201836:	6ba2                	ld	s7,8(sp)
    80201838:	6161                	add	sp,sp,80
    8020183a:	8082                	ret
        for (struct proc *cp = proc; cp < &proc[NPROC]; cp++) {
    8020183c:	16048493          	add	s1,s1,352
    80201840:	03348463          	beq	s1,s3,80201868 <wait+0xaa>
            if (cp->parent == p) {
    80201844:	709c                	ld	a5,32(s1)
    80201846:	ff279be3          	bne	a5,s2,8020183c <wait+0x7e>
                acquire(&cp->lock);
    8020184a:	8526                	mv	a0,s1
    8020184c:	fffff097          	auipc	ra,0xfffff
    80201850:	fee080e7          	jalr	-18(ra) # 8020083a <acquire>
                if (cp->state == ZOMBIE) {
    80201854:	4c9c                	lw	a5,24(s1)
    80201856:	fb4781e3          	beq	a5,s4,802017f8 <wait+0x3a>
                release(&cp->lock);
    8020185a:	8526                	mv	a0,s1
    8020185c:	fffff097          	auipc	ra,0xfffff
    80201860:	0d0080e7          	jalr	208(ra) # 8020092c <release>
                havekids = 1;
    80201864:	8756                	mv	a4,s5
    80201866:	bfd9                	j	8020183c <wait+0x7e>
        if (!havekids || p->killed) {
    80201868:	c305                	beqz	a4,80201888 <wait+0xca>
    8020186a:	03092783          	lw	a5,48(s2)
    8020186e:	ef89                	bnez	a5,80201888 <wait+0xca>
        sleep(p, &p->lock);
    80201870:	85ca                	mv	a1,s2
    80201872:	854a                	mv	a0,s2
    80201874:	00000097          	auipc	ra,0x0
    80201878:	ecc080e7          	jalr	-308(ra) # 80201740 <sleep>
        for (struct proc *cp = proc; cp < &proc[NPROC]; cp++) {
    8020187c:	00028497          	auipc	s1,0x28
    80201880:	82448493          	add	s1,s1,-2012 # 802290a0 <proc>
        havekids = 0;
    80201884:	875e                	mv	a4,s7
    80201886:	bf7d                	j	80201844 <wait+0x86>
            release(&p->lock);
    80201888:	854a                	mv	a0,s2
    8020188a:	fffff097          	auipc	ra,0xfffff
    8020188e:	0a2080e7          	jalr	162(ra) # 8020092c <release>
            return -1;
    80201892:	59fd                	li	s3,-1
    80201894:	bf41                	j	80201824 <wait+0x66>

0000000080201896 <wait_process>:
void wait_process(int *status) { wait(status); }
    80201896:	1141                	add	sp,sp,-16
    80201898:	e406                	sd	ra,8(sp)
    8020189a:	e022                	sd	s0,0(sp)
    8020189c:	0800                	add	s0,sp,16
    8020189e:	00000097          	auipc	ra,0x0
    802018a2:	f20080e7          	jalr	-224(ra) # 802017be <wait>
    802018a6:	60a2                	ld	ra,8(sp)
    802018a8:	6402                	ld	s0,0(sp)
    802018aa:	0141                	add	sp,sp,16
    802018ac:	8082                	ret

00000000802018ae <wakeup>:

void wakeup(void *chan) {
    802018ae:	7139                	add	sp,sp,-64
    802018b0:	fc06                	sd	ra,56(sp)
    802018b2:	f822                	sd	s0,48(sp)
    802018b4:	f426                	sd	s1,40(sp)
    802018b6:	f04a                	sd	s2,32(sp)
    802018b8:	ec4e                	sd	s3,24(sp)
    802018ba:	e852                	sd	s4,16(sp)
    802018bc:	e456                	sd	s5,8(sp)
    802018be:	0080                	add	s0,sp,64
    802018c0:	8a2a                	mv	s4,a0
    for (struct proc *p = proc; p < &proc[NPROC]; p++) {
    802018c2:	00027497          	auipc	s1,0x27
    802018c6:	7de48493          	add	s1,s1,2014 # 802290a0 <proc>
        if (p != myproc()) {
            acquire(&p->lock);
            if (p->state == SLEEPING && p->chan == chan) {
    802018ca:	4989                	li	s3,2
                p->state = RUNNABLE;
    802018cc:	4a8d                	li	s5,3
    for (struct proc *p = proc; p < &proc[NPROC]; p++) {
    802018ce:	0002d917          	auipc	s2,0x2d
    802018d2:	fd290913          	add	s2,s2,-46 # 8022e8a0 <bcache>
    802018d6:	a811                	j	802018ea <wakeup+0x3c>
            }
            release(&p->lock);
    802018d8:	8526                	mv	a0,s1
    802018da:	fffff097          	auipc	ra,0xfffff
    802018de:	052080e7          	jalr	82(ra) # 8020092c <release>
    for (struct proc *p = proc; p < &proc[NPROC]; p++) {
    802018e2:	16048493          	add	s1,s1,352
    802018e6:	03248663          	beq	s1,s2,80201912 <wakeup+0x64>
        if (p != myproc()) {
    802018ea:	00000097          	auipc	ra,0x0
    802018ee:	abe080e7          	jalr	-1346(ra) # 802013a8 <myproc>
    802018f2:	fea488e3          	beq	s1,a0,802018e2 <wakeup+0x34>
            acquire(&p->lock);
    802018f6:	8526                	mv	a0,s1
    802018f8:	fffff097          	auipc	ra,0xfffff
    802018fc:	f42080e7          	jalr	-190(ra) # 8020083a <acquire>
            if (p->state == SLEEPING && p->chan == chan) {
    80201900:	4c9c                	lw	a5,24(s1)
    80201902:	fd379be3          	bne	a5,s3,802018d8 <wakeup+0x2a>
    80201906:	749c                	ld	a5,40(s1)
    80201908:	fd4798e3          	bne	a5,s4,802018d8 <wakeup+0x2a>
                p->state = RUNNABLE;
    8020190c:	0154ac23          	sw	s5,24(s1)
    80201910:	b7e1                	j	802018d8 <wakeup+0x2a>
        }
    }
}
    80201912:	70e2                	ld	ra,56(sp)
    80201914:	7442                	ld	s0,48(sp)
    80201916:	74a2                	ld	s1,40(sp)
    80201918:	7902                	ld	s2,32(sp)
    8020191a:	69e2                	ld	s3,24(sp)
    8020191c:	6a42                	ld	s4,16(sp)
    8020191e:	6aa2                	ld	s5,8(sp)
    80201920:	6121                	add	sp,sp,64
    80201922:	8082                	ret

0000000080201924 <exit>:
void exit(int status) {
    80201924:	7179                	add	sp,sp,-48
    80201926:	f406                	sd	ra,40(sp)
    80201928:	f022                	sd	s0,32(sp)
    8020192a:	ec26                	sd	s1,24(sp)
    8020192c:	e84a                	sd	s2,16(sp)
    8020192e:	e44e                	sd	s3,8(sp)
    80201930:	e052                	sd	s4,0(sp)
    80201932:	1800                	add	s0,sp,48
    80201934:	8a2a                	mv	s4,a0
    struct proc *p = myproc();
    80201936:	00000097          	auipc	ra,0x0
    8020193a:	a72080e7          	jalr	-1422(ra) # 802013a8 <myproc>
    8020193e:	89aa                	mv	s3,a0
    for (int fd = 0; fd < NOFILE; fd++) {
    80201940:	0d850493          	add	s1,a0,216
    80201944:	15850913          	add	s2,a0,344
    80201948:	a021                	j	80201950 <exit+0x2c>
    8020194a:	04a1                	add	s1,s1,8
    8020194c:	01248b63          	beq	s1,s2,80201962 <exit+0x3e>
        if (p->ofile[fd]) {
    80201950:	6088                	ld	a0,0(s1)
    80201952:	dd65                	beqz	a0,8020194a <exit+0x26>
            fileclose(p->ofile[fd]);
    80201954:	00002097          	auipc	ra,0x2
    80201958:	0f0080e7          	jalr	240(ra) # 80203a44 <fileclose>
            p->ofile[fd] = 0;
    8020195c:	0004b023          	sd	zero,0(s1)
    80201960:	b7ed                	j	8020194a <exit+0x26>
    if (p->cwd) {
    80201962:	1589b503          	ld	a0,344(s3)
    80201966:	c519                	beqz	a0,80201974 <exit+0x50>
        iput(p->cwd);
    80201968:	00001097          	auipc	ra,0x1
    8020196c:	1fe080e7          	jalr	510(ra) # 80202b66 <iput>
        p->cwd = 0;
    80201970:	1409bc23          	sd	zero,344(s3)
    acquire(&p->lock);
    80201974:	854e                	mv	a0,s3
    80201976:	fffff097          	auipc	ra,0xfffff
    8020197a:	ec4080e7          	jalr	-316(ra) # 8020083a <acquire>
    p->state = ZOMBIE;
    8020197e:	4795                	li	a5,5
    80201980:	00f9ac23          	sw	a5,24(s3)
    p->xstate = status;
    80201984:	0349aa23          	sw	s4,52(s3)
    if (p->parent) wakeup(p->parent);
    80201988:	0209b503          	ld	a0,32(s3)
    8020198c:	c509                	beqz	a0,80201996 <exit+0x72>
    8020198e:	00000097          	auipc	ra,0x0
    80201992:	f20080e7          	jalr	-224(ra) # 802018ae <wakeup>
    sched();
    80201996:	00000097          	auipc	ra,0x0
    8020199a:	d2a080e7          	jalr	-726(ra) # 802016c0 <sched>
    while(1);
    8020199e:	a001                	j	8020199e <exit+0x7a>

00000000802019a0 <proc_entry>:
void proc_entry(void) {
    802019a0:	1101                	add	sp,sp,-32
    802019a2:	ec06                	sd	ra,24(sp)
    802019a4:	e822                	sd	s0,16(sp)
    802019a6:	e426                	sd	s1,8(sp)
    802019a8:	1000                	add	s0,sp,32
    struct proc *p = myproc();
    802019aa:	00000097          	auipc	ra,0x0
    802019ae:	9fe080e7          	jalr	-1538(ra) # 802013a8 <myproc>
    if (p == 0) {
    802019b2:	cd11                	beqz	a0,802019ce <proc_entry+0x2e>
    802019b4:	84aa                	mv	s1,a0
    release(&p->lock);
    802019b6:	fffff097          	auipc	ra,0xfffff
    802019ba:	f76080e7          	jalr	-138(ra) # 8020092c <release>
    if (p->entry) p->entry();
    802019be:	60fc                	ld	a5,192(s1)
    802019c0:	c391                	beqz	a5,802019c4 <proc_entry+0x24>
    802019c2:	9782                	jalr	a5
    exit(0);
    802019c4:	4501                	li	a0,0
    802019c6:	00000097          	auipc	ra,0x0
    802019ca:	f5e080e7          	jalr	-162(ra) # 80201924 <exit>
        printf("FATAL: proc_entry running with no process context!\n");
    802019ce:	00005517          	auipc	a0,0x5
    802019d2:	aca50513          	add	a0,a0,-1334 # 80206498 <_etext+0x498>
    802019d6:	ffffe097          	auipc	ra,0xffffe
    802019da:	77e080e7          	jalr	1918(ra) # 80200154 <printf>
        while(1);
    802019de:	a001                	j	802019de <proc_entry+0x3e>

00000000802019e0 <trap_init>:
    register uint64 a6 asm("a6") = 0;
    register uint64 a0 asm("a0") = stime;
    asm volatile("ecall" : "+r"(a0) : "r"(a6), "r"(a7) : "memory");
}

void trap_init(void) {
    802019e0:	1141                	add	sp,sp,-16
    802019e2:	e422                	sd	s0,8(sp)
    802019e4:	0800                	add	s0,sp,16
static inline void w_stvec(uint64 x) { asm volatile("csrw stvec, %0" : : "r" (x)); }
    802019e6:	00003797          	auipc	a5,0x3
    802019ea:	e6a78793          	add	a5,a5,-406 # 80204850 <kernelvec>
    802019ee:	10579073          	csrw	stvec,a5
    w_stvec((uint64)kernelvec);
}
    802019f2:	6422                	ld	s0,8(sp)
    802019f4:	0141                	add	sp,sp,16
    802019f6:	8082                	ret

00000000802019f8 <clock_init>:

void clock_init(void) {
    802019f8:	1141                	add	sp,sp,-16
    802019fa:	e422                	sd	s0,8(sp)
    802019fc:	0800                	add	s0,sp,16
static inline uint64 r_time() { uint64 x; asm volatile("csrr %0, time" : "=r" (x)); return x; }
    802019fe:	c0102573          	rdtime	a0
    register uint64 a7 asm("a7") = 0;
    80201a02:	4881                	li	a7,0
    register uint64 a6 asm("a6") = 0;
    80201a04:	4801                	li	a6,0
    register uint64 a0 asm("a0") = stime;
    80201a06:	67e1                	lui	a5,0x18
    80201a08:	6a078793          	add	a5,a5,1696 # 186a0 <_start-0x801e7960>
    80201a0c:	953e                	add	a0,a0,a5
    asm volatile("ecall" : "+r"(a0) : "r"(a6), "r"(a7) : "memory");
    80201a0e:	00000073          	ecall
static inline uint64 r_sie() { uint64 x; asm volatile("csrr %0, sie" : "=r" (x)); return x; }
    80201a12:	104027f3          	csrr	a5,sie
    uint64 next_timer = r_time() + 100000;
    sbi_set_timer(next_timer);
    w_sie(r_sie() | SIE_STIE);
    80201a16:	0207e793          	or	a5,a5,32
static inline void w_sie(uint64 x) { asm volatile("csrw sie, %0" : : "r" (x)); }
    80201a1a:	10479073          	csrw	sie,a5
}
    80201a1e:	6422                	ld	s0,8(sp)
    80201a20:	0141                	add	sp,sp,16
    80201a22:	8082                	ret

0000000080201a24 <get_time>:

uint64 get_time(void) { return r_time(); }
    80201a24:	1141                	add	sp,sp,-16
    80201a26:	e422                	sd	s0,8(sp)
    80201a28:	0800                	add	s0,sp,16
static inline uint64 r_time() { uint64 x; asm volatile("csrr %0, time" : "=r" (x)); return x; }
    80201a2a:	c0102573          	rdtime	a0
    80201a2e:	6422                	ld	s0,8(sp)
    80201a30:	0141                	add	sp,sp,16
    80201a32:	8082                	ret

0000000080201a34 <fork_ret>:

void fork_ret() {
    80201a34:	1101                	add	sp,sp,-32
    80201a36:	ec06                	sd	ra,24(sp)
    80201a38:	e822                	sd	s0,16(sp)
    80201a3a:	e426                	sd	s1,8(sp)
    80201a3c:	1000                	add	s0,sp,32
    struct proc *p = myproc();
    80201a3e:	00000097          	auipc	ra,0x0
    80201a42:	96a080e7          	jalr	-1686(ra) # 802013a8 <myproc>
    80201a46:	84aa                	mv	s1,a0
    release(&p->lock); 
    80201a48:	fffff097          	auipc	ra,0xfffff
    80201a4c:	ee4080e7          	jalr	-284(ra) # 8020092c <release>
    restore_trapframe(p->trapframe);
    80201a50:	60a8                	ld	a0,64(s1)
    80201a52:	00003097          	auipc	ra,0x3
    80201a56:	e86080e7          	jalr	-378(ra) # 802048d8 <restore_trapframe>
}
    80201a5a:	60e2                	ld	ra,24(sp)
    80201a5c:	6442                	ld	s0,16(sp)
    80201a5e:	64a2                	ld	s1,8(sp)
    80201a60:	6105                	add	sp,sp,32
    80201a62:	8082                	ret

0000000080201a64 <kerneltrap>:

void kerneltrap(uint64 sp_val) {
    80201a64:	7139                	add	sp,sp,-64
    80201a66:	fc06                	sd	ra,56(sp)
    80201a68:	f822                	sd	s0,48(sp)
    80201a6a:	f426                	sd	s1,40(sp)
    80201a6c:	f04a                	sd	s2,32(sp)
    80201a6e:	ec4e                	sd	s3,24(sp)
    80201a70:	e852                	sd	s4,16(sp)
    80201a72:	e456                	sd	s5,8(sp)
    80201a74:	0080                	add	s0,sp,64
static inline uint64 r_scause() { uint64 x; asm volatile("csrr %0, scause" : "=r" (x)); return x; }
    80201a76:	14202973          	csrr	s2,scause
static inline uint64 r_sepc() { uint64 x; asm volatile("csrr %0, sepc" : "=r" (x)); return x; }
    80201a7a:	141029f3          	csrr	s3,sepc
static inline uint64 r_sstatus() { uint64 x; asm volatile("csrr %0, sstatus" : "=r" (x)); return x; }
    80201a7e:	10002af3          	csrr	s5,sstatus
static inline uint64 r_stval() { uint64 x; asm volatile("csrr %0, stval" : "=r" (x) ); return x; }
    80201a82:	14302a73          	csrr	s4,stval
    uint64 scause = r_scause();
    uint64 sepc = r_sepc();
    uint64 sstatus = r_sstatus();
    uint64 stval = r_stval();

    struct proc *p = myproc();
    80201a86:	00000097          	auipc	ra,0x0
    80201a8a:	922080e7          	jalr	-1758(ra) # 802013a8 <myproc>
    80201a8e:	84aa                	mv	s1,a0
    
    // 防御性检查：确保 p 和 p->trapframe 有效
    if (p != 0 && p->trapframe != 0) {
    80201a90:	10050063          	beqz	a0,80201b90 <kerneltrap+0x12c>
    80201a94:	613c                	ld	a5,64(a0)
    80201a96:	12078763          	beqz	a5,80201bc4 <kerneltrap+0x160>
        p->trapframe->epc = sepc;
    80201a9a:	0137bc23          	sd	s3,24(a5)
    }

    if (scause == 8) { // System Call
    80201a9e:	47a1                	li	a5,8
    80201aa0:	02f90863          	beq	s2,a5,80201ad0 <kerneltrap+0x6c>
        if(p && p->trapframe) p->trapframe->epc += 4;
        intr_on();
        syscall();
        intr_off();
    } 
    else if (scause == 15) { // Store/AMO Page Fault (COW)
    80201aa4:	47bd                	li	a5,15
    80201aa6:	06f90463          	beq	s2,a5,80201b0e <kerneltrap+0xaa>
            printf("kerneltrap: Fatal Page Fault at %p without process context\n", stval);
            printf("scause=%p sepc=%p\n", scause, sepc);
            while(1);
        }
    }
    else if ((scause & 0x8000000000000000L) && (scause & 0xff) == 5) { // Timer
    80201aaa:	00095763          	bgez	s2,80201ab8 <kerneltrap+0x54>
    80201aae:	0ff97793          	zext.b	a5,s2
    80201ab2:	4715                	li	a4,5
    80201ab4:	08e78563          	beq	a5,a4,80201b3e <kerneltrap+0xda>
        uint64 next_timer = r_time() + 100000;
        sbi_set_timer(next_timer);
        if (p != 0 && p->state == RUNNING) yield();
    }
    else {
        printf("kerneltrap: unhandled exception scause %p, sepc %p, stval %p\n", scause, sepc, stval);
    80201ab8:	86d2                	mv	a3,s4
    80201aba:	864e                	mv	a2,s3
    80201abc:	85ca                	mv	a1,s2
    80201abe:	00005517          	auipc	a0,0x5
    80201ac2:	aa250513          	add	a0,a0,-1374 # 80206560 <_etext+0x560>
    80201ac6:	ffffe097          	auipc	ra,0xffffe
    80201aca:	68e080e7          	jalr	1678(ra) # 80200154 <printf>
        // 如果是 p->trapframe 为空导致的故障，这里会打印出来
        while(1);
    80201ace:	a001                	j	80201ace <kerneltrap+0x6a>
        if(p && p->trapframe) p->trapframe->epc += 4;
    80201ad0:	613c                	ld	a5,64(a0)
    80201ad2:	c781                	beqz	a5,80201ada <kerneltrap+0x76>
    80201ad4:	6f98                	ld	a4,24(a5)
    80201ad6:	0711                	add	a4,a4,4
    80201ad8:	ef98                	sd	a4,24(a5)
static inline uint64 r_sstatus() { uint64 x; asm volatile("csrr %0, sstatus" : "=r" (x)); return x; }
    80201ada:	100027f3          	csrr	a5,sstatus
    80201ade:	0027e793          	or	a5,a5,2
static inline void w_sstatus(uint64 x) { asm volatile("csrw sstatus, %0" : : "r" (x)); }
    80201ae2:	10079073          	csrw	sstatus,a5
        syscall();
    80201ae6:	00000097          	auipc	ra,0x0
    80201aea:	25a080e7          	jalr	602(ra) # 80201d40 <syscall>
static inline uint64 r_sstatus() { uint64 x; asm volatile("csrr %0, sstatus" : "=r" (x)); return x; }
    80201aee:	100027f3          	csrr	a5,sstatus
    w_sstatus(r_sstatus() & ~SSTATUS_SIE);
    80201af2:	9bf5                	and	a5,a5,-3
static inline void w_sstatus(uint64 x) { asm volatile("csrw sstatus, %0" : : "r" (x)); }
    80201af4:	10079073          	csrw	sstatus,a5
    }

    if (p && p->killed) {
    80201af8:	c4bd                	beqz	s1,80201b66 <kerneltrap+0x102>
    80201afa:	589c                	lw	a5,48(s1)
    80201afc:	e3d1                	bnez	a5,80201b80 <kerneltrap+0x11c>
    80201afe:	100a9073          	csrw	sstatus,s5
        exit(-1);
    }
    
    w_sstatus(sstatus);
    if (p && p->trapframe) w_sepc(p->trapframe->epc);
    80201b02:	60bc                	ld	a5,64(s1)
    80201b04:	c3bd                	beqz	a5,80201b6a <kerneltrap+0x106>
static inline void w_sepc(uint64 x) { asm volatile("csrw sepc, %0" : : "r" (x)); }
    80201b06:	6f9c                	ld	a5,24(a5)
    80201b08:	14179073          	csrw	sepc,a5
    80201b0c:	a08d                	j	80201b6e <kerneltrap+0x10a>
        if (p != 0 && p->pagetable != 0) {
    80201b0e:	64a8                	ld	a0,72(s1)
    80201b10:	c551                	beqz	a0,80201b9c <kerneltrap+0x138>
            if (cow_alloc(p->pagetable, stval) == 0) {
    80201b12:	85d2                	mv	a1,s4
    80201b14:	fffff097          	auipc	ra,0xfffff
    80201b18:	2e6080e7          	jalr	742(ra) # 80200dfa <cow_alloc>
    80201b1c:	dd79                	beqz	a0,80201afa <kerneltrap+0x96>
                printf("kerneltrap: cow_alloc failed for va %p, killing pid %d\n", stval, p->pid);
    80201b1e:	4cd0                	lw	a2,28(s1)
    80201b20:	85d2                	mv	a1,s4
    80201b22:	00005517          	auipc	a0,0x5
    80201b26:	9ae50513          	add	a0,a0,-1618 # 802064d0 <_etext+0x4d0>
    80201b2a:	ffffe097          	auipc	ra,0xffffe
    80201b2e:	62a080e7          	jalr	1578(ra) # 80200154 <printf>
                if(p) exit(-1);
    80201b32:	557d                	li	a0,-1
    80201b34:	00000097          	auipc	ra,0x0
    80201b38:	df0080e7          	jalr	-528(ra) # 80201924 <exit>
    if (p && p->killed) {
    80201b3c:	bf7d                	j	80201afa <kerneltrap+0x96>
static inline uint64 r_time() { uint64 x; asm volatile("csrr %0, time" : "=r" (x)); return x; }
    80201b3e:	c0102573          	rdtime	a0
    register uint64 a7 asm("a7") = 0;
    80201b42:	4881                	li	a7,0
    register uint64 a6 asm("a6") = 0;
    80201b44:	4801                	li	a6,0
    register uint64 a0 asm("a0") = stime;
    80201b46:	67e1                	lui	a5,0x18
    80201b48:	6a078793          	add	a5,a5,1696 # 186a0 <_start-0x801e7960>
    80201b4c:	953e                	add	a0,a0,a5
    asm volatile("ecall" : "+r"(a0) : "r"(a6), "r"(a7) : "memory");
    80201b4e:	00000073          	ecall
        if (p != 0 && p->state == RUNNING) yield();
    80201b52:	c891                	beqz	s1,80201b66 <kerneltrap+0x102>
    80201b54:	4c98                	lw	a4,24(s1)
    80201b56:	4791                	li	a5,4
    80201b58:	faf711e3          	bne	a4,a5,80201afa <kerneltrap+0x96>
    80201b5c:	00000097          	auipc	ra,0x0
    80201b60:	ba8080e7          	jalr	-1112(ra) # 80201704 <yield>
    if (p && p->killed) {
    80201b64:	bf59                	j	80201afa <kerneltrap+0x96>
static inline void w_sstatus(uint64 x) { asm volatile("csrw sstatus, %0" : : "r" (x)); }
    80201b66:	100a9073          	csrw	sstatus,s5
static inline void w_sepc(uint64 x) { asm volatile("csrw sepc, %0" : : "r" (x)); }
    80201b6a:	14199073          	csrw	sepc,s3
    else w_sepc(sepc); // 回退到使用局部 sepc，如果 p 无效
}
    80201b6e:	70e2                	ld	ra,56(sp)
    80201b70:	7442                	ld	s0,48(sp)
    80201b72:	74a2                	ld	s1,40(sp)
    80201b74:	7902                	ld	s2,32(sp)
    80201b76:	69e2                	ld	s3,24(sp)
    80201b78:	6a42                	ld	s4,16(sp)
    80201b7a:	6aa2                	ld	s5,8(sp)
    80201b7c:	6121                	add	sp,sp,64
    80201b7e:	8082                	ret
        exit(-1);
    80201b80:	557d                	li	a0,-1
    80201b82:	00000097          	auipc	ra,0x0
    80201b86:	da2080e7          	jalr	-606(ra) # 80201924 <exit>
static inline void w_sstatus(uint64 x) { asm volatile("csrw sstatus, %0" : : "r" (x)); }
    80201b8a:	100a9073          	csrw	sstatus,s5
    if (p && p->trapframe) w_sepc(p->trapframe->epc);
    80201b8e:	bf95                	j	80201b02 <kerneltrap+0x9e>
    if (scause == 8) { // System Call
    80201b90:	47a1                	li	a5,8
    80201b92:	f4f904e3          	beq	s2,a5,80201ada <kerneltrap+0x76>
    else if (scause == 15) { // Store/AMO Page Fault (COW)
    80201b96:	47bd                	li	a5,15
    80201b98:	f0f919e3          	bne	s2,a5,80201aaa <kerneltrap+0x46>
            printf("kerneltrap: Fatal Page Fault at %p without process context\n", stval);
    80201b9c:	85d2                	mv	a1,s4
    80201b9e:	00005517          	auipc	a0,0x5
    80201ba2:	96a50513          	add	a0,a0,-1686 # 80206508 <_etext+0x508>
    80201ba6:	ffffe097          	auipc	ra,0xffffe
    80201baa:	5ae080e7          	jalr	1454(ra) # 80200154 <printf>
            printf("scause=%p sepc=%p\n", scause, sepc);
    80201bae:	864e                	mv	a2,s3
    80201bb0:	45bd                	li	a1,15
    80201bb2:	00005517          	auipc	a0,0x5
    80201bb6:	99650513          	add	a0,a0,-1642 # 80206548 <_etext+0x548>
    80201bba:	ffffe097          	auipc	ra,0xffffe
    80201bbe:	59a080e7          	jalr	1434(ra) # 80200154 <printf>
            while(1);
    80201bc2:	a001                	j	80201bc2 <kerneltrap+0x15e>
    if (scause == 8) { // System Call
    80201bc4:	47a1                	li	a5,8
    80201bc6:	ecf91fe3          	bne	s2,a5,80201aa4 <kerneltrap+0x40>
    80201bca:	bf01                	j	80201ada <kerneltrap+0x76>

0000000080201bcc <argint>:
    [SYS_mknod]   sys_mknod,
    [SYS_chdir]   sys_chdir,
    [SYS_fstat]   sys_fstat,
};

int argint(int n, int *ip) {
    80201bcc:	1101                	add	sp,sp,-32
    80201bce:	ec06                	sd	ra,24(sp)
    80201bd0:	e822                	sd	s0,16(sp)
    80201bd2:	e426                	sd	s1,8(sp)
    80201bd4:	e04a                	sd	s2,0(sp)
    80201bd6:	1000                	add	s0,sp,32
    80201bd8:	84aa                	mv	s1,a0
    80201bda:	892e                	mv	s2,a1
    struct proc *p = myproc();
    80201bdc:	fffff097          	auipc	ra,0xfffff
    80201be0:	7cc080e7          	jalr	1996(ra) # 802013a8 <myproc>
    if (p == 0 || p->trapframe == 0) return -1;
    80201be4:	c13d                	beqz	a0,80201c4a <argint+0x7e>
    80201be6:	6134                	ld	a3,64(a0)
    80201be8:	c2bd                	beqz	a3,80201c4e <argint+0x82>
    switch(n) {
    80201bea:	4795                	li	a5,5
    80201bec:	0697e363          	bltu	a5,s1,80201c52 <argint+0x86>
    80201bf0:	00249793          	sll	a5,s1,0x2
    80201bf4:	00005717          	auipc	a4,0x5
    80201bf8:	9ac70713          	add	a4,a4,-1620 # 802065a0 <_etext+0x5a0>
    80201bfc:	97ba                	add	a5,a5,a4
    80201bfe:	439c                	lw	a5,0(a5)
    80201c00:	97ba                	add	a5,a5,a4
    80201c02:	8782                	jr	a5
        case 0: *ip = p->trapframe->a0; break;
    80201c04:	7abc                	ld	a5,112(a3)
    80201c06:	00f92023          	sw	a5,0(s2)
        case 3: *ip = p->trapframe->a3; break;
        case 4: *ip = p->trapframe->a4; break;
        case 5: *ip = p->trapframe->a5; break;
        default: return -1;
    }
    return 0;
    80201c0a:	8526                	mv	a0,s1
}
    80201c0c:	60e2                	ld	ra,24(sp)
    80201c0e:	6442                	ld	s0,16(sp)
    80201c10:	64a2                	ld	s1,8(sp)
    80201c12:	6902                	ld	s2,0(sp)
    80201c14:	6105                	add	sp,sp,32
    80201c16:	8082                	ret
        case 1: *ip = p->trapframe->a1; break;
    80201c18:	7ebc                	ld	a5,120(a3)
    80201c1a:	00f92023          	sw	a5,0(s2)
    return 0;
    80201c1e:	4501                	li	a0,0
        case 1: *ip = p->trapframe->a1; break;
    80201c20:	b7f5                	j	80201c0c <argint+0x40>
        case 2: *ip = p->trapframe->a2; break;
    80201c22:	62dc                	ld	a5,128(a3)
    80201c24:	00f92023          	sw	a5,0(s2)
    return 0;
    80201c28:	4501                	li	a0,0
        case 2: *ip = p->trapframe->a2; break;
    80201c2a:	b7cd                	j	80201c0c <argint+0x40>
        case 3: *ip = p->trapframe->a3; break;
    80201c2c:	66dc                	ld	a5,136(a3)
    80201c2e:	00f92023          	sw	a5,0(s2)
    return 0;
    80201c32:	4501                	li	a0,0
        case 3: *ip = p->trapframe->a3; break;
    80201c34:	bfe1                	j	80201c0c <argint+0x40>
        case 4: *ip = p->trapframe->a4; break;
    80201c36:	6adc                	ld	a5,144(a3)
    80201c38:	00f92023          	sw	a5,0(s2)
    return 0;
    80201c3c:	4501                	li	a0,0
        case 4: *ip = p->trapframe->a4; break;
    80201c3e:	b7f9                	j	80201c0c <argint+0x40>
        case 5: *ip = p->trapframe->a5; break;
    80201c40:	6edc                	ld	a5,152(a3)
    80201c42:	00f92023          	sw	a5,0(s2)
    return 0;
    80201c46:	4501                	li	a0,0
        case 5: *ip = p->trapframe->a5; break;
    80201c48:	b7d1                	j	80201c0c <argint+0x40>
    if (p == 0 || p->trapframe == 0) return -1;
    80201c4a:	557d                	li	a0,-1
    80201c4c:	b7c1                	j	80201c0c <argint+0x40>
    80201c4e:	557d                	li	a0,-1
    80201c50:	bf75                	j	80201c0c <argint+0x40>
    switch(n) {
    80201c52:	557d                	li	a0,-1
    80201c54:	bf65                	j	80201c0c <argint+0x40>

0000000080201c56 <argaddr>:

int argaddr(int n, uint64 *ip) {
    80201c56:	1101                	add	sp,sp,-32
    80201c58:	ec06                	sd	ra,24(sp)
    80201c5a:	e822                	sd	s0,16(sp)
    80201c5c:	e426                	sd	s1,8(sp)
    80201c5e:	e04a                	sd	s2,0(sp)
    80201c60:	1000                	add	s0,sp,32
    80201c62:	84aa                	mv	s1,a0
    80201c64:	892e                	mv	s2,a1
    struct proc *p = myproc();
    80201c66:	fffff097          	auipc	ra,0xfffff
    80201c6a:	742080e7          	jalr	1858(ra) # 802013a8 <myproc>
    if (p == 0 || p->trapframe == 0) return -1;
    80201c6e:	c13d                	beqz	a0,80201cd4 <argaddr+0x7e>
    80201c70:	6134                	ld	a3,64(a0)
    80201c72:	c2bd                	beqz	a3,80201cd8 <argaddr+0x82>
    switch(n) {
    80201c74:	4795                	li	a5,5
    80201c76:	0697e363          	bltu	a5,s1,80201cdc <argaddr+0x86>
    80201c7a:	00249793          	sll	a5,s1,0x2
    80201c7e:	00005717          	auipc	a4,0x5
    80201c82:	93a70713          	add	a4,a4,-1734 # 802065b8 <_etext+0x5b8>
    80201c86:	97ba                	add	a5,a5,a4
    80201c88:	439c                	lw	a5,0(a5)
    80201c8a:	97ba                	add	a5,a5,a4
    80201c8c:	8782                	jr	a5
        case 0: *ip = p->trapframe->a0; break;
    80201c8e:	7abc                	ld	a5,112(a3)
    80201c90:	00f93023          	sd	a5,0(s2)
        case 3: *ip = p->trapframe->a3; break;
        case 4: *ip = p->trapframe->a4; break;
        case 5: *ip = p->trapframe->a5; break;
        default: return -1;
    }
    return 0;
    80201c94:	8526                	mv	a0,s1
}
    80201c96:	60e2                	ld	ra,24(sp)
    80201c98:	6442                	ld	s0,16(sp)
    80201c9a:	64a2                	ld	s1,8(sp)
    80201c9c:	6902                	ld	s2,0(sp)
    80201c9e:	6105                	add	sp,sp,32
    80201ca0:	8082                	ret
        case 1: *ip = p->trapframe->a1; break;
    80201ca2:	7ebc                	ld	a5,120(a3)
    80201ca4:	00f93023          	sd	a5,0(s2)
    return 0;
    80201ca8:	4501                	li	a0,0
        case 1: *ip = p->trapframe->a1; break;
    80201caa:	b7f5                	j	80201c96 <argaddr+0x40>
        case 2: *ip = p->trapframe->a2; break;
    80201cac:	62dc                	ld	a5,128(a3)
    80201cae:	00f93023          	sd	a5,0(s2)
    return 0;
    80201cb2:	4501                	li	a0,0
        case 2: *ip = p->trapframe->a2; break;
    80201cb4:	b7cd                	j	80201c96 <argaddr+0x40>
        case 3: *ip = p->trapframe->a3; break;
    80201cb6:	66dc                	ld	a5,136(a3)
    80201cb8:	00f93023          	sd	a5,0(s2)
    return 0;
    80201cbc:	4501                	li	a0,0
        case 3: *ip = p->trapframe->a3; break;
    80201cbe:	bfe1                	j	80201c96 <argaddr+0x40>
        case 4: *ip = p->trapframe->a4; break;
    80201cc0:	6adc                	ld	a5,144(a3)
    80201cc2:	00f93023          	sd	a5,0(s2)
    return 0;
    80201cc6:	4501                	li	a0,0
        case 4: *ip = p->trapframe->a4; break;
    80201cc8:	b7f9                	j	80201c96 <argaddr+0x40>
        case 5: *ip = p->trapframe->a5; break;
    80201cca:	6edc                	ld	a5,152(a3)
    80201ccc:	00f93023          	sd	a5,0(s2)
    return 0;
    80201cd0:	4501                	li	a0,0
        case 5: *ip = p->trapframe->a5; break;
    80201cd2:	b7d1                	j	80201c96 <argaddr+0x40>
    if (p == 0 || p->trapframe == 0) return -1;
    80201cd4:	557d                	li	a0,-1
    80201cd6:	b7c1                	j	80201c96 <argaddr+0x40>
    80201cd8:	557d                	li	a0,-1
    80201cda:	bf75                	j	80201c96 <argaddr+0x40>
    switch(n) {
    80201cdc:	557d                	li	a0,-1
    80201cde:	bf65                	j	80201c96 <argaddr+0x40>

0000000080201ce0 <argstr>:
//从用户态传递的第n个参数中，解析出字符串（用户态地址），并将其拷贝到内核的buf中，最多拷贝max字节。
int argstr(int n, char *buf, int max) {
    80201ce0:	7179                	add	sp,sp,-48
    80201ce2:	f406                	sd	ra,40(sp)
    80201ce4:	f022                	sd	s0,32(sp)
    80201ce6:	ec26                	sd	s1,24(sp)
    80201ce8:	e84a                	sd	s2,16(sp)
    80201cea:	1800                	add	s0,sp,48
    80201cec:	84ae                	mv	s1,a1
    80201cee:	8932                	mv	s2,a2
    uint64 addr;
    if(argaddr(n, &addr) < 0) return -1;
    80201cf0:	fd840593          	add	a1,s0,-40
    80201cf4:	00000097          	auipc	ra,0x0
    80201cf8:	f62080e7          	jalr	-158(ra) # 80201c56 <argaddr>
    80201cfc:	04054063          	bltz	a0,80201d3c <argstr+0x5c>
    char *src = (char*)addr;
    80201d00:	fd843683          	ld	a3,-40(s0)
    for(int i = 0; i < max; i++){
    80201d04:	03205063          	blez	s2,80201d24 <argstr+0x44>
    80201d08:	85ca                	mv	a1,s2
    80201d0a:	4501                	li	a0,0
        buf[i] = src[i];
    80201d0c:	00a687b3          	add	a5,a3,a0
    80201d10:	0007c783          	lbu	a5,0(a5)
    80201d14:	00a48733          	add	a4,s1,a0
    80201d18:	00f70023          	sb	a5,0(a4)
        if(src[i] == 0) return i;
    80201d1c:	cf91                	beqz	a5,80201d38 <argstr+0x58>
    for(int i = 0; i < max; i++){
    80201d1e:	0505                	add	a0,a0,1
    80201d20:	feb516e3          	bne	a0,a1,80201d0c <argstr+0x2c>
    }
    buf[max-1] = 0;
    80201d24:	94ca                	add	s1,s1,s2
    80201d26:	fe048fa3          	sb	zero,-1(s1)
    return -1;
    80201d2a:	557d                	li	a0,-1
}
    80201d2c:	70a2                	ld	ra,40(sp)
    80201d2e:	7402                	ld	s0,32(sp)
    80201d30:	64e2                	ld	s1,24(sp)
    80201d32:	6942                	ld	s2,16(sp)
    80201d34:	6145                	add	sp,sp,48
    80201d36:	8082                	ret
    80201d38:	2501                	sext.w	a0,a0
    80201d3a:	bfcd                	j	80201d2c <argstr+0x4c>
    if(argaddr(n, &addr) < 0) return -1;
    80201d3c:	557d                	li	a0,-1
    80201d3e:	b7fd                	j	80201d2c <argstr+0x4c>

0000000080201d40 <syscall>:
//用户态执行ecall指令陷入内核,调用该函数，完成系统调用的分发和执行。
void syscall(void) {
    80201d40:	1101                	add	sp,sp,-32
    80201d42:	ec06                	sd	ra,24(sp)
    80201d44:	e822                	sd	s0,16(sp)
    80201d46:	e426                	sd	s1,8(sp)
    80201d48:	1000                	add	s0,sp,32
    int num;
    struct proc *p = myproc();
    80201d4a:	fffff097          	auipc	ra,0xfffff
    80201d4e:	65e080e7          	jalr	1630(ra) # 802013a8 <myproc>
    // 检查进程和陷阱帧是否有效
    if (p == 0 || p->trapframe == 0) {
    80201d52:	c905                	beqz	a0,80201d82 <syscall+0x42>
    80201d54:	84aa                	mv	s1,a0
    80201d56:	613c                	ld	a5,64(a0)
    80201d58:	c78d                	beqz	a5,80201d82 <syscall+0x42>
        // panic("syscall");
        while(1);
    }
    // 从trapframe的a7寄存器中获取系统调用号
    num = p->trapframe->a7;
    80201d5a:	77dc                	ld	a5,168(a5)
    80201d5c:	0007869b          	sext.w	a3,a5

    if(num > 0 && num < sizeof(syscalls)/sizeof(syscalls[0]) && syscalls[num]) {
    80201d60:	37fd                	addw	a5,a5,-1
    80201d62:	4779                	li	a4,30
    80201d64:	02f76063          	bltu	a4,a5,80201d84 <syscall+0x44>
    80201d68:	00369713          	sll	a4,a3,0x3
    80201d6c:	00005797          	auipc	a5,0x5
    80201d70:	86478793          	add	a5,a5,-1948 # 802065d0 <syscalls>
    80201d74:	97ba                	add	a5,a5,a4
    80201d76:	639c                	ld	a5,0(a5)
    80201d78:	c791                	beqz	a5,80201d84 <syscall+0x44>
        p->trapframe->a0 = syscalls[num]();
    80201d7a:	9782                	jalr	a5
    80201d7c:	60bc                	ld	a5,64(s1)
    80201d7e:	fba8                	sd	a0,112(a5)
    80201d80:	a005                	j	80201da0 <syscall+0x60>
        while(1);
    80201d82:	a001                	j	80201d82 <syscall+0x42>
    } else {
        printf("pid %d %s: unknown sys call %d\n", p->pid, p->name, num);
    80201d84:	0c848613          	add	a2,s1,200
    80201d88:	4ccc                	lw	a1,28(s1)
    80201d8a:	00005517          	auipc	a0,0x5
    80201d8e:	94650513          	add	a0,a0,-1722 # 802066d0 <syscalls+0x100>
    80201d92:	ffffe097          	auipc	ra,0xffffe
    80201d96:	3c2080e7          	jalr	962(ra) # 80200154 <printf>
        p->trapframe->a0 = -1;
    80201d9a:	60bc                	ld	a5,64(s1)
    80201d9c:	577d                	li	a4,-1
    80201d9e:	fbb8                	sd	a4,112(a5)
    }
    80201da0:	60e2                	ld	ra,24(sp)
    80201da2:	6442                	ld	s0,16(sp)
    80201da4:	64a2                	ld	s1,8(sp)
    80201da6:	6105                	add	sp,sp,32
    80201da8:	8082                	ret

0000000080201daa <sys_getpid>:
// kernel/sysproc.c
#include "defs.h"

int sys_getpid(void) {
    80201daa:	1141                	add	sp,sp,-16
    80201dac:	e406                	sd	ra,8(sp)
    80201dae:	e022                	sd	s0,0(sp)
    80201db0:	0800                	add	s0,sp,16
    // [关键] 性能测试绝对不能包含 printf
    return myproc()->pid;
    80201db2:	fffff097          	auipc	ra,0xfffff
    80201db6:	5f6080e7          	jalr	1526(ra) # 802013a8 <myproc>
}
    80201dba:	4d48                	lw	a0,28(a0)
    80201dbc:	60a2                	ld	ra,8(sp)
    80201dbe:	6402                	ld	s0,0(sp)
    80201dc0:	0141                	add	sp,sp,16
    80201dc2:	8082                	ret

0000000080201dc4 <sys_exit>:

int sys_exit(void) {
    80201dc4:	1101                	add	sp,sp,-32
    80201dc6:	ec06                	sd	ra,24(sp)
    80201dc8:	e822                	sd	s0,16(sp)
    80201dca:	1000                	add	s0,sp,32
    int n;
    if(argint(0, &n) < 0)
    80201dcc:	fec40593          	add	a1,s0,-20
    80201dd0:	4501                	li	a0,0
    80201dd2:	00000097          	auipc	ra,0x0
    80201dd6:	dfa080e7          	jalr	-518(ra) # 80201bcc <argint>
    80201dda:	00054d63          	bltz	a0,80201df4 <sys_exit+0x30>
        return -1;
    exit(n);
    80201dde:	fec42503          	lw	a0,-20(s0)
    80201de2:	00000097          	auipc	ra,0x0
    80201de6:	b42080e7          	jalr	-1214(ra) # 80201924 <exit>
    return 0; 
    80201dea:	4501                	li	a0,0
}
    80201dec:	60e2                	ld	ra,24(sp)
    80201dee:	6442                	ld	s0,16(sp)
    80201df0:	6105                	add	sp,sp,32
    80201df2:	8082                	ret
        return -1;
    80201df4:	557d                	li	a0,-1
    80201df6:	bfdd                	j	80201dec <sys_exit+0x28>

0000000080201df8 <sys_fork>:

int sys_fork(void) {
    80201df8:	1141                	add	sp,sp,-16
    80201dfa:	e406                	sd	ra,8(sp)
    80201dfc:	e022                	sd	s0,0(sp)
    80201dfe:	0800                	add	s0,sp,16
    return fork();
    80201e00:	fffff097          	auipc	ra,0xfffff
    80201e04:	6ca080e7          	jalr	1738(ra) # 802014ca <fork>
}
    80201e08:	60a2                	ld	ra,8(sp)
    80201e0a:	6402                	ld	s0,0(sp)
    80201e0c:	0141                	add	sp,sp,16
    80201e0e:	8082                	ret

0000000080201e10 <sys_wait>:

int sys_wait(void) {
    80201e10:	1101                	add	sp,sp,-32
    80201e12:	ec06                	sd	ra,24(sp)
    80201e14:	e822                	sd	s0,16(sp)
    80201e16:	1000                	add	s0,sp,32
    uint64 p;
    if(argaddr(0, &p) < 0)
    80201e18:	fe840593          	add	a1,s0,-24
    80201e1c:	4501                	li	a0,0
    80201e1e:	00000097          	auipc	ra,0x0
    80201e22:	e38080e7          	jalr	-456(ra) # 80201c56 <argaddr>
    80201e26:	00054c63          	bltz	a0,80201e3e <sys_wait+0x2e>
        return -1;
    return wait((int*)p);
    80201e2a:	fe843503          	ld	a0,-24(s0)
    80201e2e:	00000097          	auipc	ra,0x0
    80201e32:	990080e7          	jalr	-1648(ra) # 802017be <wait>
}
    80201e36:	60e2                	ld	ra,24(sp)
    80201e38:	6442                	ld	s0,16(sp)
    80201e3a:	6105                	add	sp,sp,32
    80201e3c:	8082                	ret
        return -1;
    80201e3e:	557d                	li	a0,-1
    80201e40:	bfdd                	j	80201e36 <sys_wait+0x26>

0000000080201e42 <sys_kill>:

int sys_kill(void) {
    80201e42:	1101                	add	sp,sp,-32
    80201e44:	ec06                	sd	ra,24(sp)
    80201e46:	e822                	sd	s0,16(sp)
    80201e48:	1000                	add	s0,sp,32
    int pid;
    if(argint(0, &pid) < 0)
    80201e4a:	fec40593          	add	a1,s0,-20
    80201e4e:	4501                	li	a0,0
    80201e50:	00000097          	auipc	ra,0x0
    80201e54:	d7c080e7          	jalr	-644(ra) # 80201bcc <argint>
    80201e58:	00054a63          	bltz	a0,80201e6c <sys_kill+0x2a>
        return -1;
    printf("sys_kill not implemented\n");
    80201e5c:	00005517          	auipc	a0,0x5
    80201e60:	89450513          	add	a0,a0,-1900 # 802066f0 <syscalls+0x120>
    80201e64:	ffffe097          	auipc	ra,0xffffe
    80201e68:	2f0080e7          	jalr	752(ra) # 80200154 <printf>
    return -1; 
    80201e6c:	557d                	li	a0,-1
    80201e6e:	60e2                	ld	ra,24(sp)
    80201e70:	6442                	ld	s0,16(sp)
    80201e72:	6105                	add	sp,sp,32
    80201e74:	8082                	ret

0000000080201e76 <binit>:
    struct spinlock lock;
    struct buf buf[NBUF];
    struct buf head;
} bcache;

void binit(void) {
    80201e76:	7179                	add	sp,sp,-48
    80201e78:	f406                	sd	ra,40(sp)
    80201e7a:	f022                	sd	s0,32(sp)
    80201e7c:	ec26                	sd	s1,24(sp)
    80201e7e:	e84a                	sd	s2,16(sp)
    80201e80:	e44e                	sd	s3,8(sp)
    80201e82:	e052                	sd	s4,0(sp)
    80201e84:	1800                	add	s0,sp,48
    struct buf *b;

    spinlock_init(&bcache.lock, "bcache");
    80201e86:	00005597          	auipc	a1,0x5
    80201e8a:	88a58593          	add	a1,a1,-1910 # 80206710 <syscalls+0x140>
    80201e8e:	0002d517          	auipc	a0,0x2d
    80201e92:	a1250513          	add	a0,a0,-1518 # 8022e8a0 <bcache>
    80201e96:	fffff097          	auipc	ra,0xfffff
    80201e9a:	942080e7          	jalr	-1726(ra) # 802007d8 <spinlock_init>
    bcache.head.prev = &bcache.head;
    80201e9e:	00035797          	auipc	a5,0x35
    80201ea2:	a0278793          	add	a5,a5,-1534 # 802368a0 <bcache+0x8000>
    80201ea6:	00035717          	auipc	a4,0x35
    80201eaa:	c6270713          	add	a4,a4,-926 # 80236b08 <bcache+0x8268>
    80201eae:	2ae7b823          	sd	a4,688(a5)
    bcache.head.next = &bcache.head;
    80201eb2:	2ae7bc23          	sd	a4,696(a5)

    for (b = bcache.buf; b < bcache.buf + NBUF; b++) {
    80201eb6:	0002d497          	auipc	s1,0x2d
    80201eba:	a0248493          	add	s1,s1,-1534 # 8022e8b8 <bcache+0x18>
        b->next = bcache.head.next;
    80201ebe:	893e                	mv	s2,a5
        b->prev = &bcache.head;
    80201ec0:	89ba                	mv	s3,a4
        bcache.head.next->prev = b;
        bcache.head.next = b;
        initsleeplock(&b->lock, "buffer");
    80201ec2:	00005a17          	auipc	s4,0x5
    80201ec6:	856a0a13          	add	s4,s4,-1962 # 80206718 <syscalls+0x148>
        b->next = bcache.head.next;
    80201eca:	2b893783          	ld	a5,696(s2)
    80201ece:	e8bc                	sd	a5,80(s1)
        b->prev = &bcache.head;
    80201ed0:	0534b423          	sd	s3,72(s1)
        bcache.head.next->prev = b;
    80201ed4:	2b893783          	ld	a5,696(s2)
    80201ed8:	e7a4                	sd	s1,72(a5)
        bcache.head.next = b;
    80201eda:	2a993c23          	sd	s1,696(s2)
        initsleeplock(&b->lock, "buffer");
    80201ede:	85d2                	mv	a1,s4
    80201ee0:	01048513          	add	a0,s1,16
    80201ee4:	00002097          	auipc	ra,0x2
    80201ee8:	93e080e7          	jalr	-1730(ra) # 80203822 <initsleeplock>
    for (b = bcache.buf; b < bcache.buf + NBUF; b++) {
    80201eec:	45848493          	add	s1,s1,1112
    80201ef0:	fd349de3          	bne	s1,s3,80201eca <binit+0x54>
    }
}
    80201ef4:	70a2                	ld	ra,40(sp)
    80201ef6:	7402                	ld	s0,32(sp)
    80201ef8:	64e2                	ld	s1,24(sp)
    80201efa:	6942                	ld	s2,16(sp)
    80201efc:	69a2                	ld	s3,8(sp)
    80201efe:	6a02                	ld	s4,0(sp)
    80201f00:	6145                	add	sp,sp,48
    80201f02:	8082                	ret

0000000080201f04 <bread>:

    panic("bget: no buffers");
    return 0;
}

struct buf *bread(uint dev, uint blockno) {
    80201f04:	7179                	add	sp,sp,-48
    80201f06:	f406                	sd	ra,40(sp)
    80201f08:	f022                	sd	s0,32(sp)
    80201f0a:	ec26                	sd	s1,24(sp)
    80201f0c:	e84a                	sd	s2,16(sp)
    80201f0e:	e44e                	sd	s3,8(sp)
    80201f10:	1800                	add	s0,sp,48
    80201f12:	892a                	mv	s2,a0
    80201f14:	89ae                	mv	s3,a1
    acquire(&bcache.lock);
    80201f16:	0002d517          	auipc	a0,0x2d
    80201f1a:	98a50513          	add	a0,a0,-1654 # 8022e8a0 <bcache>
    80201f1e:	fffff097          	auipc	ra,0xfffff
    80201f22:	91c080e7          	jalr	-1764(ra) # 8020083a <acquire>
    for (b = bcache.head.next; b != &bcache.head; b = b->next) {
    80201f26:	00035497          	auipc	s1,0x35
    80201f2a:	c324b483          	ld	s1,-974(s1) # 80236b58 <bcache+0x82b8>
    80201f2e:	00035797          	auipc	a5,0x35
    80201f32:	bda78793          	add	a5,a5,-1062 # 80236b08 <bcache+0x8268>
    80201f36:	04f48663          	beq	s1,a5,80201f82 <bread+0x7e>
    80201f3a:	873e                	mv	a4,a5
    80201f3c:	a021                	j	80201f44 <bread+0x40>
    80201f3e:	68a4                	ld	s1,80(s1)
    80201f40:	04e48163          	beq	s1,a4,80201f82 <bread+0x7e>
        if (b->dev == dev && b->blockno == blockno) {
    80201f44:	449c                	lw	a5,8(s1)
    80201f46:	ff279ce3          	bne	a5,s2,80201f3e <bread+0x3a>
    80201f4a:	44dc                	lw	a5,12(s1)
    80201f4c:	ff3799e3          	bne	a5,s3,80201f3e <bread+0x3a>
            b->refcnt++;
    80201f50:	40bc                	lw	a5,64(s1)
    80201f52:	2785                	addw	a5,a5,1
    80201f54:	c0bc                	sw	a5,64(s1)
            cache_hits++;
    80201f56:	0000e717          	auipc	a4,0xe
    80201f5a:	0ca70713          	add	a4,a4,202 # 80210020 <cache_hits>
    80201f5e:	631c                	ld	a5,0(a4)
    80201f60:	0785                	add	a5,a5,1
    80201f62:	e31c                	sd	a5,0(a4)
            release(&bcache.lock);
    80201f64:	0002d517          	auipc	a0,0x2d
    80201f68:	93c50513          	add	a0,a0,-1732 # 8022e8a0 <bcache>
    80201f6c:	fffff097          	auipc	ra,0xfffff
    80201f70:	9c0080e7          	jalr	-1600(ra) # 8020092c <release>
            acquiresleep(&b->lock);
    80201f74:	01048513          	add	a0,s1,16
    80201f78:	00002097          	auipc	ra,0x2
    80201f7c:	8e4080e7          	jalr	-1820(ra) # 8020385c <acquiresleep>
            return b;
    80201f80:	a815                	j	80201fb4 <bread+0xb0>
    for (b = bcache.head.prev; b != &bcache.head; b = b->prev) {
    80201f82:	00035497          	auipc	s1,0x35
    80201f86:	bce4b483          	ld	s1,-1074(s1) # 80236b50 <bcache+0x82b0>
    80201f8a:	00035797          	auipc	a5,0x35
    80201f8e:	b7e78793          	add	a5,a5,-1154 # 80236b08 <bcache+0x8268>
    80201f92:	00f48863          	beq	s1,a5,80201fa2 <bread+0x9e>
    80201f96:	873e                	mv	a4,a5
        if (b->refcnt == 0) {
    80201f98:	40bc                	lw	a5,64(s1)
    80201f9a:	c79d                	beqz	a5,80201fc8 <bread+0xc4>
    for (b = bcache.head.prev; b != &bcache.head; b = b->prev) {
    80201f9c:	64a4                	ld	s1,72(s1)
    80201f9e:	fee49de3          	bne	s1,a4,80201f98 <bread+0x94>
    panic("bget: no buffers");
    80201fa2:	00004517          	auipc	a0,0x4
    80201fa6:	77e50513          	add	a0,a0,1918 # 80206720 <syscalls+0x150>
    80201faa:	ffffe097          	auipc	ra,0xffffe
    80201fae:	42a080e7          	jalr	1066(ra) # 802003d4 <panic>
    return 0;
    80201fb2:	4481                	li	s1,0
    struct buf *b = bget(dev, blockno);
    if (!b->valid) {
    80201fb4:	409c                	lw	a5,0(s1)
    80201fb6:	c7b9                	beqz	a5,80202004 <bread+0x100>
        virtio_disk_rw(b, 0);
        b->valid = 1;
    }
    return b;
}
    80201fb8:	8526                	mv	a0,s1
    80201fba:	70a2                	ld	ra,40(sp)
    80201fbc:	7402                	ld	s0,32(sp)
    80201fbe:	64e2                	ld	s1,24(sp)
    80201fc0:	6942                	ld	s2,16(sp)
    80201fc2:	69a2                	ld	s3,8(sp)
    80201fc4:	6145                	add	sp,sp,48
    80201fc6:	8082                	ret
            b->dev = dev;
    80201fc8:	0124a423          	sw	s2,8(s1)
            b->blockno = blockno;
    80201fcc:	0134a623          	sw	s3,12(s1)
            b->valid = 0;
    80201fd0:	0004a023          	sw	zero,0(s1)
            b->refcnt = 1;
    80201fd4:	4785                	li	a5,1
    80201fd6:	c0bc                	sw	a5,64(s1)
            cache_misses++;
    80201fd8:	0000e717          	auipc	a4,0xe
    80201fdc:	04070713          	add	a4,a4,64 # 80210018 <cache_misses>
    80201fe0:	631c                	ld	a5,0(a4)
    80201fe2:	0785                	add	a5,a5,1
    80201fe4:	e31c                	sd	a5,0(a4)
            release(&bcache.lock);
    80201fe6:	0002d517          	auipc	a0,0x2d
    80201fea:	8ba50513          	add	a0,a0,-1862 # 8022e8a0 <bcache>
    80201fee:	fffff097          	auipc	ra,0xfffff
    80201ff2:	93e080e7          	jalr	-1730(ra) # 8020092c <release>
            acquiresleep(&b->lock);
    80201ff6:	01048513          	add	a0,s1,16
    80201ffa:	00002097          	auipc	ra,0x2
    80201ffe:	862080e7          	jalr	-1950(ra) # 8020385c <acquiresleep>
            return b;
    80202002:	bf4d                	j	80201fb4 <bread+0xb0>
        virtio_disk_rw(b, 0);
    80202004:	4581                	li	a1,0
    80202006:	8526                	mv	a0,s1
    80202008:	00003097          	auipc	ra,0x3
    8020200c:	c0e080e7          	jalr	-1010(ra) # 80204c16 <virtio_disk_rw>
        b->valid = 1;
    80202010:	4785                	li	a5,1
    80202012:	c09c                	sw	a5,0(s1)
    return b;
    80202014:	b755                	j	80201fb8 <bread+0xb4>

0000000080202016 <bwrite>:

void bwrite(struct buf *b) {
    80202016:	1101                	add	sp,sp,-32
    80202018:	ec06                	sd	ra,24(sp)
    8020201a:	e822                	sd	s0,16(sp)
    8020201c:	e426                	sd	s1,8(sp)
    8020201e:	1000                	add	s0,sp,32
    80202020:	84aa                	mv	s1,a0
    if (!holdingsleep(&b->lock)) {
    80202022:	0541                	add	a0,a0,16
    80202024:	00002097          	auipc	ra,0x2
    80202028:	8d0080e7          	jalr	-1840(ra) # 802038f4 <holdingsleep>
    8020202c:	cd01                	beqz	a0,80202044 <bwrite+0x2e>
        panic("bwrite");
    }
    virtio_disk_rw(b, 1);
    8020202e:	4585                	li	a1,1
    80202030:	8526                	mv	a0,s1
    80202032:	00003097          	auipc	ra,0x3
    80202036:	be4080e7          	jalr	-1052(ra) # 80204c16 <virtio_disk_rw>
}
    8020203a:	60e2                	ld	ra,24(sp)
    8020203c:	6442                	ld	s0,16(sp)
    8020203e:	64a2                	ld	s1,8(sp)
    80202040:	6105                	add	sp,sp,32
    80202042:	8082                	ret
        panic("bwrite");
    80202044:	00004517          	auipc	a0,0x4
    80202048:	6f450513          	add	a0,a0,1780 # 80206738 <syscalls+0x168>
    8020204c:	ffffe097          	auipc	ra,0xffffe
    80202050:	388080e7          	jalr	904(ra) # 802003d4 <panic>
    80202054:	bfe9                	j	8020202e <bwrite+0x18>

0000000080202056 <brelse>:

void brelse(struct buf *b) {
    80202056:	1101                	add	sp,sp,-32
    80202058:	ec06                	sd	ra,24(sp)
    8020205a:	e822                	sd	s0,16(sp)
    8020205c:	e426                	sd	s1,8(sp)
    8020205e:	e04a                	sd	s2,0(sp)
    80202060:	1000                	add	s0,sp,32
    80202062:	84aa                	mv	s1,a0
    if (!holdingsleep(&b->lock)) {
    80202064:	01050913          	add	s2,a0,16
    80202068:	854a                	mv	a0,s2
    8020206a:	00002097          	auipc	ra,0x2
    8020206e:	88a080e7          	jalr	-1910(ra) # 802038f4 <holdingsleep>
    80202072:	c925                	beqz	a0,802020e2 <brelse+0x8c>
        panic("brelse");
    }

    releasesleep(&b->lock);
    80202074:	854a                	mv	a0,s2
    80202076:	00002097          	auipc	ra,0x2
    8020207a:	83a080e7          	jalr	-1990(ra) # 802038b0 <releasesleep>

    acquire(&bcache.lock);
    8020207e:	0002d517          	auipc	a0,0x2d
    80202082:	82250513          	add	a0,a0,-2014 # 8022e8a0 <bcache>
    80202086:	ffffe097          	auipc	ra,0xffffe
    8020208a:	7b4080e7          	jalr	1972(ra) # 8020083a <acquire>
    b->refcnt--;
    8020208e:	40bc                	lw	a5,64(s1)
    80202090:	37fd                	addw	a5,a5,-1
    80202092:	0007871b          	sext.w	a4,a5
    80202096:	c0bc                	sw	a5,64(s1)
    if (b->refcnt == 0) {
    80202098:	e71d                	bnez	a4,802020c6 <brelse+0x70>
        b->next->prev = b->prev;
    8020209a:	68b8                	ld	a4,80(s1)
    8020209c:	64bc                	ld	a5,72(s1)
    8020209e:	e73c                	sd	a5,72(a4)
        b->prev->next = b->next;
    802020a0:	68b8                	ld	a4,80(s1)
    802020a2:	ebb8                	sd	a4,80(a5)
        b->next = bcache.head.next;
    802020a4:	00034797          	auipc	a5,0x34
    802020a8:	7fc78793          	add	a5,a5,2044 # 802368a0 <bcache+0x8000>
    802020ac:	2b87b703          	ld	a4,696(a5)
    802020b0:	e8b8                	sd	a4,80(s1)
        b->prev = &bcache.head;
    802020b2:	00035717          	auipc	a4,0x35
    802020b6:	a5670713          	add	a4,a4,-1450 # 80236b08 <bcache+0x8268>
    802020ba:	e4b8                	sd	a4,72(s1)
        bcache.head.next->prev = b;
    802020bc:	2b87b703          	ld	a4,696(a5)
    802020c0:	e724                	sd	s1,72(a4)
        bcache.head.next = b;
    802020c2:	2a97bc23          	sd	s1,696(a5)
    }
    release(&bcache.lock);
    802020c6:	0002c517          	auipc	a0,0x2c
    802020ca:	7da50513          	add	a0,a0,2010 # 8022e8a0 <bcache>
    802020ce:	fffff097          	auipc	ra,0xfffff
    802020d2:	85e080e7          	jalr	-1954(ra) # 8020092c <release>
}
    802020d6:	60e2                	ld	ra,24(sp)
    802020d8:	6442                	ld	s0,16(sp)
    802020da:	64a2                	ld	s1,8(sp)
    802020dc:	6902                	ld	s2,0(sp)
    802020de:	6105                	add	sp,sp,32
    802020e0:	8082                	ret
        panic("brelse");
    802020e2:	00004517          	auipc	a0,0x4
    802020e6:	65e50513          	add	a0,a0,1630 # 80206740 <syscalls+0x170>
    802020ea:	ffffe097          	auipc	ra,0xffffe
    802020ee:	2ea080e7          	jalr	746(ra) # 802003d4 <panic>
    802020f2:	b749                	j	80202074 <brelse+0x1e>

00000000802020f4 <bpin>:

void bpin(struct buf *b) {
    802020f4:	1101                	add	sp,sp,-32
    802020f6:	ec06                	sd	ra,24(sp)
    802020f8:	e822                	sd	s0,16(sp)
    802020fa:	e426                	sd	s1,8(sp)
    802020fc:	1000                	add	s0,sp,32
    802020fe:	84aa                	mv	s1,a0
    acquire(&bcache.lock);
    80202100:	0002c517          	auipc	a0,0x2c
    80202104:	7a050513          	add	a0,a0,1952 # 8022e8a0 <bcache>
    80202108:	ffffe097          	auipc	ra,0xffffe
    8020210c:	732080e7          	jalr	1842(ra) # 8020083a <acquire>
    b->refcnt++;
    80202110:	40bc                	lw	a5,64(s1)
    80202112:	2785                	addw	a5,a5,1
    80202114:	c0bc                	sw	a5,64(s1)
    release(&bcache.lock);
    80202116:	0002c517          	auipc	a0,0x2c
    8020211a:	78a50513          	add	a0,a0,1930 # 8022e8a0 <bcache>
    8020211e:	fffff097          	auipc	ra,0xfffff
    80202122:	80e080e7          	jalr	-2034(ra) # 8020092c <release>
}
    80202126:	60e2                	ld	ra,24(sp)
    80202128:	6442                	ld	s0,16(sp)
    8020212a:	64a2                	ld	s1,8(sp)
    8020212c:	6105                	add	sp,sp,32
    8020212e:	8082                	ret

0000000080202130 <bunpin>:

void bunpin(struct buf *b) {
    80202130:	1101                	add	sp,sp,-32
    80202132:	ec06                	sd	ra,24(sp)
    80202134:	e822                	sd	s0,16(sp)
    80202136:	e426                	sd	s1,8(sp)
    80202138:	1000                	add	s0,sp,32
    8020213a:	84aa                	mv	s1,a0
    acquire(&bcache.lock);
    8020213c:	0002c517          	auipc	a0,0x2c
    80202140:	76450513          	add	a0,a0,1892 # 8022e8a0 <bcache>
    80202144:	ffffe097          	auipc	ra,0xffffe
    80202148:	6f6080e7          	jalr	1782(ra) # 8020083a <acquire>
    b->refcnt--;
    8020214c:	40bc                	lw	a5,64(s1)
    8020214e:	37fd                	addw	a5,a5,-1
    80202150:	c0bc                	sw	a5,64(s1)
    release(&bcache.lock);
    80202152:	0002c517          	auipc	a0,0x2c
    80202156:	74e50513          	add	a0,a0,1870 # 8022e8a0 <bcache>
    8020215a:	ffffe097          	auipc	ra,0xffffe
    8020215e:	7d2080e7          	jalr	2002(ra) # 8020092c <release>
}
    80202162:	60e2                	ld	ra,24(sp)
    80202164:	6442                	ld	s0,16(sp)
    80202166:	64a2                	ld	s1,8(sp)
    80202168:	6105                	add	sp,sp,32
    8020216a:	8082                	ret

000000008020216c <get_buffer_cache_hits>:

uint64 get_buffer_cache_hits(void) {
    8020216c:	1141                	add	sp,sp,-16
    8020216e:	e422                	sd	s0,8(sp)
    80202170:	0800                	add	s0,sp,16
    return cache_hits;
}
    80202172:	0000e517          	auipc	a0,0xe
    80202176:	eae53503          	ld	a0,-338(a0) # 80210020 <cache_hits>
    8020217a:	6422                	ld	s0,8(sp)
    8020217c:	0141                	add	sp,sp,16
    8020217e:	8082                	ret

0000000080202180 <get_buffer_cache_misses>:

uint64 get_buffer_cache_misses(void) {
    80202180:	1141                	add	sp,sp,-16
    80202182:	e422                	sd	s0,8(sp)
    80202184:	0800                	add	s0,sp,16
    return cache_misses;
}
    80202186:	0000e517          	auipc	a0,0xe
    8020218a:	e9253503          	ld	a0,-366(a0) # 80210018 <cache_misses>
    8020218e:	6422                	ld	s0,8(sp)
    80202190:	0141                	add	sp,sp,16
    80202192:	8082                	ret

0000000080202194 <bitmap_set>:
    }
    release(&icache.lock);
}

// 仅供 fs_format 使用的辅助函数，格式化时无并发，可直接 bwrite
static void bitmap_set(int dev, uint blockno) {
    80202194:	1101                	add	sp,sp,-32
    80202196:	ec06                	sd	ra,24(sp)
    80202198:	e822                	sd	s0,16(sp)
    8020219a:	e426                	sd	s1,8(sp)
    8020219c:	e04a                	sd	s2,0(sp)
    8020219e:	1000                	add	s0,sp,32
    802021a0:	84ae                	mv	s1,a1
    struct buf *bp = bread(dev, BBLOCK(blockno, sb));
    802021a2:	00d5d59b          	srlw	a1,a1,0xd
    802021a6:	00035797          	auipc	a5,0x35
    802021aa:	dd67a783          	lw	a5,-554(a5) # 80236f7c <sb+0x1c>
    802021ae:	9dbd                	addw	a1,a1,a5
    802021b0:	00000097          	auipc	ra,0x0
    802021b4:	d54080e7          	jalr	-684(ra) # 80201f04 <bread>
    802021b8:	892a                	mv	s2,a0
    uint bi = blockno % BPB;
    802021ba:	03349793          	sll	a5,s1,0x33
    bp->data[bi / 8] |= 1 << (bi % 8);
    802021be:	93d9                	srl	a5,a5,0x36
    802021c0:	97aa                	add	a5,a5,a0
    802021c2:	889d                	and	s1,s1,7
    802021c4:	4685                	li	a3,1
    802021c6:	009696bb          	sllw	a3,a3,s1
    802021ca:	0587c703          	lbu	a4,88(a5)
    802021ce:	8f55                	or	a4,a4,a3
    802021d0:	04e78c23          	sb	a4,88(a5)
    bwrite(bp);
    802021d4:	00000097          	auipc	ra,0x0
    802021d8:	e42080e7          	jalr	-446(ra) # 80202016 <bwrite>
    brelse(bp);
    802021dc:	854a                	mv	a0,s2
    802021de:	00000097          	auipc	ra,0x0
    802021e2:	e78080e7          	jalr	-392(ra) # 80202056 <brelse>
}
    802021e6:	60e2                	ld	ra,24(sp)
    802021e8:	6442                	ld	s0,16(sp)
    802021ea:	64a2                	ld	s1,8(sp)
    802021ec:	6902                	ld	s2,0(sp)
    802021ee:	6105                	add	sp,sp,32
    802021f0:	8082                	ret

00000000802021f2 <readsb>:
static void readsb(int dev, struct superblock *sb) {
    802021f2:	1101                	add	sp,sp,-32
    802021f4:	ec06                	sd	ra,24(sp)
    802021f6:	e822                	sd	s0,16(sp)
    802021f8:	e426                	sd	s1,8(sp)
    802021fa:	e04a                	sd	s2,0(sp)
    802021fc:	1000                	add	s0,sp,32
    802021fe:	892e                	mv	s2,a1
    struct buf *bp = bread(dev, 1);
    80202200:	4585                	li	a1,1
    80202202:	00000097          	auipc	ra,0x0
    80202206:	d02080e7          	jalr	-766(ra) # 80201f04 <bread>
    8020220a:	84aa                	mv	s1,a0
    memmove(sb, bp->data, sizeof(*sb));
    8020220c:	02000613          	li	a2,32
    80202210:	05850593          	add	a1,a0,88
    80202214:	854a                	mv	a0,s2
    80202216:	ffffe097          	auipc	ra,0xffffe
    8020221a:	7ae080e7          	jalr	1966(ra) # 802009c4 <memmove>
    brelse(bp);
    8020221e:	8526                	mv	a0,s1
    80202220:	00000097          	auipc	ra,0x0
    80202224:	e36080e7          	jalr	-458(ra) # 80202056 <brelse>
}
    80202228:	60e2                	ld	ra,24(sp)
    8020222a:	6442                	ld	s0,16(sp)
    8020222c:	64a2                	ld	s1,8(sp)
    8020222e:	6902                	ld	s2,0(sp)
    80202230:	6105                	add	sp,sp,32
    80202232:	8082                	ret

0000000080202234 <bfree>:
static void bfree(int dev, uint b) {
    80202234:	7179                	add	sp,sp,-48
    80202236:	f406                	sd	ra,40(sp)
    80202238:	f022                	sd	s0,32(sp)
    8020223a:	ec26                	sd	s1,24(sp)
    8020223c:	e84a                	sd	s2,16(sp)
    8020223e:	e44e                	sd	s3,8(sp)
    80202240:	e052                	sd	s4,0(sp)
    80202242:	1800                	add	s0,sp,48
    80202244:	84ae                	mv	s1,a1
    struct buf *bp = bread(dev, BBLOCK(b, sb));
    80202246:	00d5d59b          	srlw	a1,a1,0xd
    8020224a:	00035797          	auipc	a5,0x35
    8020224e:	d327a783          	lw	a5,-718(a5) # 80236f7c <sb+0x1c>
    80202252:	9dbd                	addw	a1,a1,a5
    80202254:	00000097          	auipc	ra,0x0
    80202258:	cb0080e7          	jalr	-848(ra) # 80201f04 <bread>
    8020225c:	892a                	mv	s2,a0
    int m = 1 << (bi % 8);
    8020225e:	0074f793          	and	a5,s1,7
    80202262:	4a05                	li	s4,1
    80202264:	00fa1a3b          	sllw	s4,s4,a5
    uint bi = b % BPB;
    80202268:	14ce                	sll	s1,s1,0x33
    if ((bp->data[bi / 8] & m) == 0) {
    8020226a:	0364d993          	srl	s3,s1,0x36
    8020226e:	013504b3          	add	s1,a0,s3
    80202272:	0584c783          	lbu	a5,88(s1)
    80202276:	00fa77b3          	and	a5,s4,a5
    8020227a:	cf9d                	beqz	a5,802022b8 <bfree+0x84>
    bp->data[bi / 8] &= ~m;
    8020227c:	02099793          	sll	a5,s3,0x20
    80202280:	9381                	srl	a5,a5,0x20
    80202282:	97ca                	add	a5,a5,s2
    80202284:	fffa4a13          	not	s4,s4
    80202288:	0587c703          	lbu	a4,88(a5)
    8020228c:	01477733          	and	a4,a4,s4
    80202290:	04e78c23          	sb	a4,88(a5)
    log_write(bp); // [恢复] 使用 log_write
    80202294:	854a                	mv	a0,s2
    80202296:	00001097          	auipc	ra,0x1
    8020229a:	49c080e7          	jalr	1180(ra) # 80203732 <log_write>
    brelse(bp);
    8020229e:	854a                	mv	a0,s2
    802022a0:	00000097          	auipc	ra,0x0
    802022a4:	db6080e7          	jalr	-586(ra) # 80202056 <brelse>
}
    802022a8:	70a2                	ld	ra,40(sp)
    802022aa:	7402                	ld	s0,32(sp)
    802022ac:	64e2                	ld	s1,24(sp)
    802022ae:	6942                	ld	s2,16(sp)
    802022b0:	69a2                	ld	s3,8(sp)
    802022b2:	6a02                	ld	s4,0(sp)
    802022b4:	6145                	add	sp,sp,48
    802022b6:	8082                	ret
        panic("bfree: freeing free block");
    802022b8:	00004517          	auipc	a0,0x4
    802022bc:	49050513          	add	a0,a0,1168 # 80206748 <syscalls+0x178>
    802022c0:	ffffe097          	auipc	ra,0xffffe
    802022c4:	114080e7          	jalr	276(ra) # 802003d4 <panic>
    802022c8:	bf55                	j	8020227c <bfree+0x48>

00000000802022ca <balloc>:
static uint balloc(uint dev) {
    802022ca:	711d                	add	sp,sp,-96
    802022cc:	ec86                	sd	ra,88(sp)
    802022ce:	e8a2                	sd	s0,80(sp)
    802022d0:	e4a6                	sd	s1,72(sp)
    802022d2:	e0ca                	sd	s2,64(sp)
    802022d4:	fc4e                	sd	s3,56(sp)
    802022d6:	f852                	sd	s4,48(sp)
    802022d8:	f456                	sd	s5,40(sp)
    802022da:	f05a                	sd	s6,32(sp)
    802022dc:	ec5e                	sd	s7,24(sp)
    802022de:	e862                	sd	s8,16(sp)
    802022e0:	e466                	sd	s9,8(sp)
    802022e2:	e06a                	sd	s10,0(sp)
    802022e4:	1080                	add	s0,sp,96
    return sb.bmapstart + ((sb.nblocks + BPB - 1) / BPB);
    802022e6:	00035797          	auipc	a5,0x35
    802022ea:	c7a78793          	add	a5,a5,-902 # 80236f60 <sb>
    802022ee:	4798                	lw	a4,8(a5)
    802022f0:	6909                	lui	s2,0x2
    802022f2:	397d                	addw	s2,s2,-1 # 1fff <_start-0x801fe001>
    802022f4:	00e9093b          	addw	s2,s2,a4
    802022f8:	00d9591b          	srlw	s2,s2,0xd
    802022fc:	4fd8                	lw	a4,28(a5)
    802022fe:	00e9093b          	addw	s2,s2,a4
    for (b = 0; b < sb.size; b += BPB) {
    80202302:	43dc                	lw	a5,4(a5)
    80202304:	c7f5                	beqz	a5,802023f0 <balloc+0x126>
    80202306:	8c2a                	mv	s8,a0
    80202308:	4b01                	li	s6,0
        bp = bread(dev, BBLOCK(b, sb));
    8020230a:	00035b97          	auipc	s7,0x35
    8020230e:	c56b8b93          	add	s7,s7,-938 # 80236f60 <sb>
        for (uint bi = 0; bi < BPB && b + bi < sb.size; bi++) {
    80202312:	4c81                	li	s9,0
            int m = 1 << (bi % 8);
    80202314:	4a85                	li	s5,1
        for (uint bi = 0; bi < BPB && b + bi < sb.size; bi++) {
    80202316:	6a09                	lui	s4,0x2
    for (b = 0; b < sb.size; b += BPB) {
    80202318:	6d09                	lui	s10,0x2
    8020231a:	a85d                	j	802023d0 <balloc+0x106>
        for (uint bi = 0; bi < BPB && b + bi < sb.size; bi++) {
    8020231c:	2785                	addw	a5,a5,1
    8020231e:	2485                	addw	s1,s1,1
    80202320:	09478d63          	beq	a5,s4,802023ba <balloc+0xf0>
    80202324:	08b4fb63          	bgeu	s1,a1,802023ba <balloc+0xf0>
            if (blockno < start)
    80202328:	ff24eae3          	bltu	s1,s2,8020231c <balloc+0x52>
            int m = 1 << (bi % 8);
    8020232c:	0077f713          	and	a4,a5,7
    80202330:	00ea973b          	sllw	a4,s5,a4
            if ((bp->data[bi / 8] & m) == 0) {
    80202334:	0037d51b          	srlw	a0,a5,0x3
    80202338:	0037d69b          	srlw	a3,a5,0x3
    8020233c:	96ce                	add	a3,a3,s3
    8020233e:	0586c683          	lbu	a3,88(a3)
    80202342:	00d77633          	and	a2,a4,a3
    80202346:	fa79                	bnez	a2,8020231c <balloc+0x52>
                bp->data[bi / 8] |= m;
    80202348:	1502                	sll	a0,a0,0x20
    8020234a:	9101                	srl	a0,a0,0x20
    8020234c:	954e                	add	a0,a0,s3
    8020234e:	8ed9                	or	a3,a3,a4
    80202350:	04d50c23          	sb	a3,88(a0)
                log_write(bp); // [恢复] 使用 log_write
    80202354:	854e                	mv	a0,s3
    80202356:	00001097          	auipc	ra,0x1
    8020235a:	3dc080e7          	jalr	988(ra) # 80203732 <log_write>
                brelse(bp);
    8020235e:	854e                	mv	a0,s3
    80202360:	00000097          	auipc	ra,0x0
    80202364:	cf6080e7          	jalr	-778(ra) # 80202056 <brelse>
    struct buf *bp = bread(dev, bno);
    80202368:	85a6                	mv	a1,s1
    8020236a:	8562                	mv	a0,s8
    8020236c:	00000097          	auipc	ra,0x0
    80202370:	b98080e7          	jalr	-1128(ra) # 80201f04 <bread>
    80202374:	892a                	mv	s2,a0
    memset(bp->data, 0, BSIZE);
    80202376:	40000613          	li	a2,1024
    8020237a:	4581                	li	a1,0
    8020237c:	05850513          	add	a0,a0,88
    80202380:	ffffe097          	auipc	ra,0xffffe
    80202384:	622080e7          	jalr	1570(ra) # 802009a2 <memset>
    log_write(bp); // [恢复] 使用 log_write 保证事务原子性
    80202388:	854a                	mv	a0,s2
    8020238a:	00001097          	auipc	ra,0x1
    8020238e:	3a8080e7          	jalr	936(ra) # 80203732 <log_write>
    brelse(bp);
    80202392:	854a                	mv	a0,s2
    80202394:	00000097          	auipc	ra,0x0
    80202398:	cc2080e7          	jalr	-830(ra) # 80202056 <brelse>
}
    8020239c:	8526                	mv	a0,s1
    8020239e:	60e6                	ld	ra,88(sp)
    802023a0:	6446                	ld	s0,80(sp)
    802023a2:	64a6                	ld	s1,72(sp)
    802023a4:	6906                	ld	s2,64(sp)
    802023a6:	79e2                	ld	s3,56(sp)
    802023a8:	7a42                	ld	s4,48(sp)
    802023aa:	7aa2                	ld	s5,40(sp)
    802023ac:	7b02                	ld	s6,32(sp)
    802023ae:	6be2                	ld	s7,24(sp)
    802023b0:	6c42                	ld	s8,16(sp)
    802023b2:	6ca2                	ld	s9,8(sp)
    802023b4:	6d02                	ld	s10,0(sp)
    802023b6:	6125                	add	sp,sp,96
    802023b8:	8082                	ret
        brelse(bp);
    802023ba:	854e                	mv	a0,s3
    802023bc:	00000097          	auipc	ra,0x0
    802023c0:	c9a080e7          	jalr	-870(ra) # 80202056 <brelse>
    for (b = 0; b < sb.size; b += BPB) {
    802023c4:	016d0b3b          	addw	s6,s10,s6
    802023c8:	004ba783          	lw	a5,4(s7)
    802023cc:	02fb7263          	bgeu	s6,a5,802023f0 <balloc+0x126>
        bp = bread(dev, BBLOCK(b, sb));
    802023d0:	00db559b          	srlw	a1,s6,0xd
    802023d4:	01cba783          	lw	a5,28(s7)
    802023d8:	9dbd                	addw	a1,a1,a5
    802023da:	8562                	mv	a0,s8
    802023dc:	00000097          	auipc	ra,0x0
    802023e0:	b28080e7          	jalr	-1240(ra) # 80201f04 <bread>
    802023e4:	89aa                	mv	s3,a0
        for (uint bi = 0; bi < BPB && b + bi < sb.size; bi++) {
    802023e6:	004ba583          	lw	a1,4(s7)
    802023ea:	84da                	mv	s1,s6
    802023ec:	87e6                	mv	a5,s9
    802023ee:	bf1d                	j	80202324 <balloc+0x5a>
    panic("balloc: out of blocks");
    802023f0:	00004517          	auipc	a0,0x4
    802023f4:	37850513          	add	a0,a0,888 # 80206768 <syscalls+0x198>
    802023f8:	ffffe097          	auipc	ra,0xffffe
    802023fc:	fdc080e7          	jalr	-36(ra) # 802003d4 <panic>
    return 0;
    80202400:	4481                	li	s1,0
    80202402:	bf69                	j	8020239c <balloc+0xd2>

0000000080202404 <bmap>:
static uint bmap(struct inode *ip, uint bn) {
    80202404:	7179                	add	sp,sp,-48
    80202406:	f406                	sd	ra,40(sp)
    80202408:	f022                	sd	s0,32(sp)
    8020240a:	ec26                	sd	s1,24(sp)
    8020240c:	e84a                	sd	s2,16(sp)
    8020240e:	e44e                	sd	s3,8(sp)
    80202410:	e052                	sd	s4,0(sp)
    80202412:	1800                	add	s0,sp,48
    80202414:	892a                	mv	s2,a0
    if (bn < NDIRECT) {
    80202416:	47ad                	li	a5,11
    80202418:	04b7fe63          	bgeu	a5,a1,80202474 <bmap+0x70>
    bn -= NDIRECT;
    8020241c:	ff45849b          	addw	s1,a1,-12
    80202420:	0004871b          	sext.w	a4,s1
    if (bn < NINDIRECT) {
    80202424:	0ff00793          	li	a5,255
    80202428:	0ae7e163          	bltu	a5,a4,802024ca <bmap+0xc6>
        if ((addr = ip->addrs[NDIRECT]) == 0)
    8020242c:	08052583          	lw	a1,128(a0)
    80202430:	c5b5                	beqz	a1,8020249c <bmap+0x98>
        bp = bread(ip->dev, addr);
    80202432:	00092503          	lw	a0,0(s2)
    80202436:	00000097          	auipc	ra,0x0
    8020243a:	ace080e7          	jalr	-1330(ra) # 80201f04 <bread>
    8020243e:	8a2a                	mv	s4,a0
        uint *a = (uint*)bp->data;
    80202440:	05850793          	add	a5,a0,88
        if (a[bn] == 0) {
    80202444:	02049713          	sll	a4,s1,0x20
    80202448:	01e75593          	srl	a1,a4,0x1e
    8020244c:	00b784b3          	add	s1,a5,a1
    80202450:	409c                	lw	a5,0(s1)
    80202452:	cfb9                	beqz	a5,802024b0 <bmap+0xac>
        uint r = a[bn];
    80202454:	0004a983          	lw	s3,0(s1)
        brelse(bp);
    80202458:	8552                	mv	a0,s4
    8020245a:	00000097          	auipc	ra,0x0
    8020245e:	bfc080e7          	jalr	-1028(ra) # 80202056 <brelse>
}
    80202462:	854e                	mv	a0,s3
    80202464:	70a2                	ld	ra,40(sp)
    80202466:	7402                	ld	s0,32(sp)
    80202468:	64e2                	ld	s1,24(sp)
    8020246a:	6942                	ld	s2,16(sp)
    8020246c:	69a2                	ld	s3,8(sp)
    8020246e:	6a02                	ld	s4,0(sp)
    80202470:	6145                	add	sp,sp,48
    80202472:	8082                	ret
        if ((addr = ip->addrs[bn]) == 0)
    80202474:	02059793          	sll	a5,a1,0x20
    80202478:	01e7d593          	srl	a1,a5,0x1e
    8020247c:	00b504b3          	add	s1,a0,a1
    80202480:	0504a983          	lw	s3,80(s1)
    80202484:	fc099fe3          	bnez	s3,80202462 <bmap+0x5e>
            ip->addrs[bn] = addr = balloc(ip->dev);
    80202488:	4108                	lw	a0,0(a0)
    8020248a:	00000097          	auipc	ra,0x0
    8020248e:	e40080e7          	jalr	-448(ra) # 802022ca <balloc>
    80202492:	0005099b          	sext.w	s3,a0
    80202496:	0534a823          	sw	s3,80(s1)
    8020249a:	b7e1                	j	80202462 <bmap+0x5e>
            ip->addrs[NDIRECT] = addr = balloc(ip->dev);
    8020249c:	4108                	lw	a0,0(a0)
    8020249e:	00000097          	auipc	ra,0x0
    802024a2:	e2c080e7          	jalr	-468(ra) # 802022ca <balloc>
    802024a6:	0005059b          	sext.w	a1,a0
    802024aa:	08b92023          	sw	a1,128(s2)
    802024ae:	b751                	j	80202432 <bmap+0x2e>
            a[bn] = balloc(ip->dev);
    802024b0:	00092503          	lw	a0,0(s2)
    802024b4:	00000097          	auipc	ra,0x0
    802024b8:	e16080e7          	jalr	-490(ra) # 802022ca <balloc>
    802024bc:	c088                	sw	a0,0(s1)
            log_write(bp); // [恢复] 使用 log_write
    802024be:	8552                	mv	a0,s4
    802024c0:	00001097          	auipc	ra,0x1
    802024c4:	272080e7          	jalr	626(ra) # 80203732 <log_write>
    802024c8:	b771                	j	80202454 <bmap+0x50>
    panic("bmap");
    802024ca:	00004517          	auipc	a0,0x4
    802024ce:	2b650513          	add	a0,a0,694 # 80206780 <syscalls+0x1b0>
    802024d2:	ffffe097          	auipc	ra,0xffffe
    802024d6:	f02080e7          	jalr	-254(ra) # 802003d4 <panic>
    return 0;
    802024da:	4981                	li	s3,0
    802024dc:	b759                	j	80202462 <bmap+0x5e>

00000000802024de <iinit>:
void iinit(void) {
    802024de:	7139                	add	sp,sp,-64
    802024e0:	fc06                	sd	ra,56(sp)
    802024e2:	f822                	sd	s0,48(sp)
    802024e4:	f426                	sd	s1,40(sp)
    802024e6:	f04a                	sd	s2,32(sp)
    802024e8:	ec4e                	sd	s3,24(sp)
    802024ea:	e852                	sd	s4,16(sp)
    802024ec:	e456                	sd	s5,8(sp)
    802024ee:	0080                	add	s0,sp,64
    readsb(ROOTDEV, &sb);
    802024f0:	00035497          	auipc	s1,0x35
    802024f4:	a7048493          	add	s1,s1,-1424 # 80236f60 <sb>
    802024f8:	85a6                	mv	a1,s1
    802024fa:	4505                	li	a0,1
    802024fc:	00000097          	auipc	ra,0x0
    80202500:	cf6080e7          	jalr	-778(ra) # 802021f2 <readsb>
    if (sb.magic != FSMAGIC) {
    80202504:	4098                	lw	a4,0(s1)
    80202506:	102037b7          	lui	a5,0x10203
    8020250a:	04078793          	add	a5,a5,64 # 10203040 <_start-0x6fffcfc0>
    8020250e:	06f71f63          	bne	a4,a5,8020258c <iinit+0xae>
    spinlock_init(&icache.lock, "icache");
    80202512:	00004597          	auipc	a1,0x4
    80202516:	2a658593          	add	a1,a1,678 # 802067b8 <syscalls+0x1e8>
    8020251a:	00035517          	auipc	a0,0x35
    8020251e:	a6650513          	add	a0,a0,-1434 # 80236f80 <icache>
    80202522:	ffffe097          	auipc	ra,0xffffe
    80202526:	2b6080e7          	jalr	694(ra) # 802007d8 <spinlock_init>
    for (int i = 0; i < NINODE; i++) {
    8020252a:	00035497          	auipc	s1,0x35
    8020252e:	a7e48493          	add	s1,s1,-1410 # 80236fa8 <icache+0x28>
    80202532:	0003f997          	auipc	s3,0x3f
    80202536:	9d698993          	add	s3,s3,-1578 # 80240f08 <log+0x10>
        initsleeplock(&icache.inode[i].lock, "inode");
    8020253a:	00004917          	auipc	s2,0x4
    8020253e:	28690913          	add	s2,s2,646 # 802067c0 <syscalls+0x1f0>
        icache.inode[i].ref = 0;
    80202542:	fe04ac23          	sw	zero,-8(s1)
        initsleeplock(&icache.inode[i].lock, "inode");
    80202546:	85ca                	mv	a1,s2
    80202548:	8526                	mv	a0,s1
    8020254a:	00001097          	auipc	ra,0x1
    8020254e:	2d8080e7          	jalr	728(ra) # 80203822 <initsleeplock>
    for (int i = 0; i < NINODE; i++) {
    80202552:	08848493          	add	s1,s1,136
    80202556:	ff3496e3          	bne	s1,s3,80202542 <iinit+0x64>
    printf("fs: size=%d nblocks=%d ninodes=%d nlog=%d\n", sb.size, sb.nblocks, sb.ninodes, sb.nlog);
    8020255a:	00035797          	auipc	a5,0x35
    8020255e:	a0678793          	add	a5,a5,-1530 # 80236f60 <sb>
    80202562:	4b98                	lw	a4,16(a5)
    80202564:	47d4                	lw	a3,12(a5)
    80202566:	4790                	lw	a2,8(a5)
    80202568:	43cc                	lw	a1,4(a5)
    8020256a:	00004517          	auipc	a0,0x4
    8020256e:	25e50513          	add	a0,a0,606 # 802067c8 <syscalls+0x1f8>
    80202572:	ffffe097          	auipc	ra,0xffffe
    80202576:	be2080e7          	jalr	-1054(ra) # 80200154 <printf>
}
    8020257a:	70e2                	ld	ra,56(sp)
    8020257c:	7442                	ld	s0,48(sp)
    8020257e:	74a2                	ld	s1,40(sp)
    80202580:	7902                	ld	s2,32(sp)
    80202582:	69e2                	ld	s3,24(sp)
    80202584:	6a42                	ld	s4,16(sp)
    80202586:	6aa2                	ld	s5,8(sp)
    80202588:	6121                	add	sp,sp,64
    8020258a:	8082                	ret

static void fs_format(int dev) {
    printf("Formatting filesystem...\n");
    8020258c:	00004517          	auipc	a0,0x4
    80202590:	1fc50513          	add	a0,a0,508 # 80206788 <syscalls+0x1b8>
    80202594:	ffffe097          	auipc	ra,0xffffe
    80202598:	bc0080e7          	jalr	-1088(ra) # 80200154 <printf>
    memset(&sb, 0, sizeof(sb));
    8020259c:	02000613          	li	a2,32
    802025a0:	4581                	li	a1,0
    802025a2:	8526                	mv	a0,s1
    802025a4:	ffffe097          	auipc	ra,0xffffe
    802025a8:	3fe080e7          	jalr	1022(ra) # 802009a2 <memset>
    sb.magic = FSMAGIC;
    802025ac:	102037b7          	lui	a5,0x10203
    802025b0:	04078793          	add	a5,a5,64 # 10203040 <_start-0x6fffcfc0>
    802025b4:	c09c                	sw	a5,0(s1)
    sb.size = FSSIZE;
    802025b6:	6785                	lui	a5,0x1
    802025b8:	c0dc                	sw	a5,4(s1)
    sb.ninodes = NINODE;
    802025ba:	12c00713          	li	a4,300
    802025be:	c4d8                	sw	a4,12(s1)
    sb.nlog = LOGSIZE;
    802025c0:	4779                	li	a4,30
    802025c2:	c898                	sw	a4,16(s1)
    sb.logstart = 2;
    802025c4:	4709                	li	a4,2
    802025c6:	c8d8                	sw	a4,20(s1)
    sb.inodestart = sb.logstart + sb.nlog;
    802025c8:	02000713          	li	a4,32
    802025cc:	cc98                	sw	a4,24(s1)
    int inodeblocks = (sb.ninodes + IPB - 1) / IPB;
    sb.bmapstart = sb.inodestart + inodeblocks;
    802025ce:	03300713          	li	a4,51
    802025d2:	ccd8                	sw	a4,28(s1)
    uint bitmapblocks = 1; // temporary
    sb.nblocks = sb.size - (sb.bmapstart + bitmapblocks);
    802025d4:	fcc78793          	add	a5,a5,-52 # fcc <_start-0x801ff034>
    802025d8:	c49c                	sw	a5,8(s1)
    bitmapblocks = (sb.nblocks + BPB - 1) / BPB;
    sb.nblocks = sb.size - (sb.bmapstart + bitmapblocks);

    for (uint b = 0; b < sb.size; b++) {
    802025da:	4901                	li	s2,0
    802025dc:	89a6                	mv	s3,s1
        struct buf *bp = bread(dev, b);
    802025de:	85ca                	mv	a1,s2
    802025e0:	4505                	li	a0,1
    802025e2:	00000097          	auipc	ra,0x0
    802025e6:	922080e7          	jalr	-1758(ra) # 80201f04 <bread>
    802025ea:	84aa                	mv	s1,a0
        memset(bp->data, 0, BSIZE);
    802025ec:	40000613          	li	a2,1024
    802025f0:	4581                	li	a1,0
    802025f2:	05850513          	add	a0,a0,88
    802025f6:	ffffe097          	auipc	ra,0xffffe
    802025fa:	3ac080e7          	jalr	940(ra) # 802009a2 <memset>
        bwrite(bp);
    802025fe:	8526                	mv	a0,s1
    80202600:	00000097          	auipc	ra,0x0
    80202604:	a16080e7          	jalr	-1514(ra) # 80202016 <bwrite>
        brelse(bp);
    80202608:	8526                	mv	a0,s1
    8020260a:	00000097          	auipc	ra,0x0
    8020260e:	a4c080e7          	jalr	-1460(ra) # 80202056 <brelse>
    for (uint b = 0; b < sb.size; b++) {
    80202612:	2905                	addw	s2,s2,1
    80202614:	0049a783          	lw	a5,4(s3)
    80202618:	fcf963e3          	bltu	s2,a5,802025de <iinit+0x100>
    }

    struct buf *bp = bread(dev, 1);
    8020261c:	4585                	li	a1,1
    8020261e:	4505                	li	a0,1
    80202620:	00000097          	auipc	ra,0x0
    80202624:	8e4080e7          	jalr	-1820(ra) # 80201f04 <bread>
    80202628:	84aa                	mv	s1,a0
    memmove(bp->data, &sb, sizeof(sb));
    8020262a:	00035917          	auipc	s2,0x35
    8020262e:	93690913          	add	s2,s2,-1738 # 80236f60 <sb>
    80202632:	02000613          	li	a2,32
    80202636:	85ca                	mv	a1,s2
    80202638:	05850513          	add	a0,a0,88
    8020263c:	ffffe097          	auipc	ra,0xffffe
    80202640:	388080e7          	jalr	904(ra) # 802009c4 <memmove>
    bwrite(bp);
    80202644:	8526                	mv	a0,s1
    80202646:	00000097          	auipc	ra,0x0
    8020264a:	9d0080e7          	jalr	-1584(ra) # 80202016 <bwrite>
    brelse(bp);
    8020264e:	8526                	mv	a0,s1
    80202650:	00000097          	auipc	ra,0x0
    80202654:	a06080e7          	jalr	-1530(ra) # 80202056 <brelse>
    return sb.bmapstart + ((sb.nblocks + BPB - 1) / BPB);
    80202658:	00892783          	lw	a5,8(s2)
    8020265c:	6989                	lui	s3,0x2
    8020265e:	39fd                	addw	s3,s3,-1 # 1fff <_start-0x801fe001>
    80202660:	00f989bb          	addw	s3,s3,a5
    80202664:	00d9d99b          	srlw	s3,s3,0xd
    80202668:	01c92783          	lw	a5,28(s2)
    8020266c:	00f989bb          	addw	s3,s3,a5
    80202670:	0009891b          	sext.w	s2,s3

    uint start = data_start_block();
    for (uint b = 0; b < start; b++)
    80202674:	00090c63          	beqz	s2,8020268c <iinit+0x1ae>
    80202678:	4481                	li	s1,0
        bitmap_set(dev, b);
    8020267a:	85a6                	mv	a1,s1
    8020267c:	4505                	li	a0,1
    8020267e:	00000097          	auipc	ra,0x0
    80202682:	b16080e7          	jalr	-1258(ra) # 80202194 <bitmap_set>
    for (uint b = 0; b < start; b++)
    80202686:	2485                	addw	s1,s1,1
    80202688:	fe9919e3          	bne	s2,s1,8020267a <iinit+0x19c>

    uint root_block = start;
    bitmap_set(dev, root_block);
    8020268c:	85ca                	mv	a1,s2
    8020268e:	4505                	li	a0,1
    80202690:	00000097          	auipc	ra,0x0
    80202694:	b04080e7          	jalr	-1276(ra) # 80202194 <bitmap_set>

    struct buf *ib = bread(dev, IBLOCK(ROOTINO, sb));
    80202698:	00035a97          	auipc	s5,0x35
    8020269c:	8c8a8a93          	add	s5,s5,-1848 # 80236f60 <sb>
    802026a0:	018aa583          	lw	a1,24(s5)
    802026a4:	4505                	li	a0,1
    802026a6:	00000097          	auipc	ra,0x0
    802026aa:	85e080e7          	jalr	-1954(ra) # 80201f04 <bread>
    802026ae:	84aa                	mv	s1,a0
    struct dinode *dip = (struct dinode*)ib->data + ROOTINO % IPB;
    memset(dip, 0, sizeof(*dip));
    802026b0:	04000613          	li	a2,64
    802026b4:	4581                	li	a1,0
    802026b6:	09850513          	add	a0,a0,152
    802026ba:	ffffe097          	auipc	ra,0xffffe
    802026be:	2e8080e7          	jalr	744(ra) # 802009a2 <memset>
    dip->type = T_DIR;
    802026c2:	4a05                	li	s4,1
    802026c4:	09449c23          	sh	s4,152(s1)
    dip->nlink = 2;
    802026c8:	4789                	li	a5,2
    802026ca:	08f49f23          	sh	a5,158(s1)
    dip->size = sizeof(struct dirent) * 2;
    802026ce:	02000793          	li	a5,32
    802026d2:	0af4a023          	sw	a5,160(s1)
    dip->addrs[0] = root_block;
    802026d6:	0b34a223          	sw	s3,164(s1)
    bwrite(ib);
    802026da:	8526                	mv	a0,s1
    802026dc:	00000097          	auipc	ra,0x0
    802026e0:	93a080e7          	jalr	-1734(ra) # 80202016 <bwrite>
    brelse(ib);
    802026e4:	8526                	mv	a0,s1
    802026e6:	00000097          	auipc	ra,0x0
    802026ea:	970080e7          	jalr	-1680(ra) # 80202056 <brelse>

    struct buf *db = bread(dev, root_block);
    802026ee:	85ca                	mv	a1,s2
    802026f0:	4505                	li	a0,1
    802026f2:	00000097          	auipc	ra,0x0
    802026f6:	812080e7          	jalr	-2030(ra) # 80201f04 <bread>
    802026fa:	84aa                	mv	s1,a0
    struct dirent *de = (struct dirent*)db->data;
    memset(de, 0, BSIZE);
    802026fc:	40000613          	li	a2,1024
    80202700:	4581                	li	a1,0
    80202702:	05850513          	add	a0,a0,88
    80202706:	ffffe097          	auipc	ra,0xffffe
    8020270a:	29c080e7          	jalr	668(ra) # 802009a2 <memset>
    de[0].inum = ROOTINO;
    8020270e:	05449c23          	sh	s4,88(s1)
    safestrcpy(de[0].name, ".", DIRSIZ);
    80202712:	4639                	li	a2,14
    80202714:	00004597          	auipc	a1,0x4
    80202718:	09458593          	add	a1,a1,148 # 802067a8 <syscalls+0x1d8>
    8020271c:	05a48513          	add	a0,s1,90
    80202720:	ffffe097          	auipc	ra,0xffffe
    80202724:	3cc080e7          	jalr	972(ra) # 80200aec <safestrcpy>
    de[1].inum = ROOTINO;
    80202728:	07449423          	sh	s4,104(s1)
    safestrcpy(de[1].name, "..", DIRSIZ);
    8020272c:	4639                	li	a2,14
    8020272e:	00004597          	auipc	a1,0x4
    80202732:	08258593          	add	a1,a1,130 # 802067b0 <syscalls+0x1e0>
    80202736:	06a48513          	add	a0,s1,106
    8020273a:	ffffe097          	auipc	ra,0xffffe
    8020273e:	3b2080e7          	jalr	946(ra) # 80200aec <safestrcpy>
    bwrite(db);
    80202742:	8526                	mv	a0,s1
    80202744:	00000097          	auipc	ra,0x0
    80202748:	8d2080e7          	jalr	-1838(ra) # 80202016 <bwrite>
    brelse(db);
    8020274c:	8526                	mv	a0,s1
    8020274e:	00000097          	auipc	ra,0x0
    80202752:	908080e7          	jalr	-1784(ra) # 80202056 <brelse>
        readsb(ROOTDEV, &sb);
    80202756:	85d6                	mv	a1,s5
    80202758:	4505                	li	a0,1
    8020275a:	00000097          	auipc	ra,0x0
    8020275e:	a98080e7          	jalr	-1384(ra) # 802021f2 <readsb>
    80202762:	bb45                	j	80202512 <iinit+0x34>

0000000080202764 <iget>:
struct inode *iget(uint dev, uint inum) {
    80202764:	7179                	add	sp,sp,-48
    80202766:	f406                	sd	ra,40(sp)
    80202768:	f022                	sd	s0,32(sp)
    8020276a:	ec26                	sd	s1,24(sp)
    8020276c:	e84a                	sd	s2,16(sp)
    8020276e:	e44e                	sd	s3,8(sp)
    80202770:	e052                	sd	s4,0(sp)
    80202772:	1800                	add	s0,sp,48
    80202774:	89aa                	mv	s3,a0
    80202776:	8a2e                	mv	s4,a1
    acquire(&icache.lock);
    80202778:	00035517          	auipc	a0,0x35
    8020277c:	80850513          	add	a0,a0,-2040 # 80236f80 <icache>
    80202780:	ffffe097          	auipc	ra,0xffffe
    80202784:	0ba080e7          	jalr	186(ra) # 8020083a <acquire>
    struct inode *ip, *empty = 0;
    80202788:	4901                	li	s2,0
    for (ip = icache.inode; ip < &icache.inode[NINODE]; ip++) {
    8020278a:	00035497          	auipc	s1,0x35
    8020278e:	80e48493          	add	s1,s1,-2034 # 80236f98 <icache+0x18>
    80202792:	0003e697          	auipc	a3,0x3e
    80202796:	76668693          	add	a3,a3,1894 # 80240ef8 <log>
    8020279a:	a039                	j	802027a8 <iget+0x44>
        if (empty == 0 && ip->ref == 0)
    8020279c:	04090263          	beqz	s2,802027e0 <iget+0x7c>
    for (ip = icache.inode; ip < &icache.inode[NINODE]; ip++) {
    802027a0:	08848493          	add	s1,s1,136
    802027a4:	04d48163          	beq	s1,a3,802027e6 <iget+0x82>
        if (ip->ref > 0 && ip->dev == dev && ip->inum == inum) {
    802027a8:	449c                	lw	a5,8(s1)
    802027aa:	fef059e3          	blez	a5,8020279c <iget+0x38>
    802027ae:	4098                	lw	a4,0(s1)
    802027b0:	ff3716e3          	bne	a4,s3,8020279c <iget+0x38>
    802027b4:	40d8                	lw	a4,4(s1)
    802027b6:	ff4713e3          	bne	a4,s4,8020279c <iget+0x38>
            ip->ref++;
    802027ba:	2785                	addw	a5,a5,1
    802027bc:	c49c                	sw	a5,8(s1)
            release(&icache.lock);
    802027be:	00034517          	auipc	a0,0x34
    802027c2:	7c250513          	add	a0,a0,1986 # 80236f80 <icache>
    802027c6:	ffffe097          	auipc	ra,0xffffe
    802027ca:	166080e7          	jalr	358(ra) # 8020092c <release>
}
    802027ce:	8526                	mv	a0,s1
    802027d0:	70a2                	ld	ra,40(sp)
    802027d2:	7402                	ld	s0,32(sp)
    802027d4:	64e2                	ld	s1,24(sp)
    802027d6:	6942                	ld	s2,16(sp)
    802027d8:	69a2                	ld	s3,8(sp)
    802027da:	6a02                	ld	s4,0(sp)
    802027dc:	6145                	add	sp,sp,48
    802027de:	8082                	ret
        if (empty == 0 && ip->ref == 0)
    802027e0:	f3e1                	bnez	a5,802027a0 <iget+0x3c>
    802027e2:	8926                	mv	s2,s1
    802027e4:	bf75                	j	802027a0 <iget+0x3c>
    if (empty == 0)
    802027e6:	02090563          	beqz	s2,80202810 <iget+0xac>
    ip->dev = dev;
    802027ea:	01392023          	sw	s3,0(s2)
    ip->inum = inum;
    802027ee:	01492223          	sw	s4,4(s2)
    ip->ref = 1;
    802027f2:	4785                	li	a5,1
    802027f4:	00f92423          	sw	a5,8(s2)
    ip->valid = 0;
    802027f8:	04092023          	sw	zero,64(s2)
    release(&icache.lock);
    802027fc:	00034517          	auipc	a0,0x34
    80202800:	78450513          	add	a0,a0,1924 # 80236f80 <icache>
    80202804:	ffffe097          	auipc	ra,0xffffe
    80202808:	128080e7          	jalr	296(ra) # 8020092c <release>
    return ip;
    8020280c:	84ca                	mv	s1,s2
    8020280e:	b7c1                	j	802027ce <iget+0x6a>
        panic("iget: no inodes");
    80202810:	00004517          	auipc	a0,0x4
    80202814:	fe850513          	add	a0,a0,-24 # 802067f8 <syscalls+0x228>
    80202818:	ffffe097          	auipc	ra,0xffffe
    8020281c:	bbc080e7          	jalr	-1092(ra) # 802003d4 <panic>
    80202820:	b7e9                	j	802027ea <iget+0x86>

0000000080202822 <ialloc>:
struct inode *ialloc(uint dev, short type) {
    80202822:	7139                	add	sp,sp,-64
    80202824:	fc06                	sd	ra,56(sp)
    80202826:	f822                	sd	s0,48(sp)
    80202828:	f426                	sd	s1,40(sp)
    8020282a:	f04a                	sd	s2,32(sp)
    8020282c:	ec4e                	sd	s3,24(sp)
    8020282e:	e852                	sd	s4,16(sp)
    80202830:	e456                	sd	s5,8(sp)
    80202832:	e05a                	sd	s6,0(sp)
    80202834:	0080                	add	s0,sp,64
    for (uint inum = 1; inum < sb.ninodes; inum++) {
    80202836:	00034717          	auipc	a4,0x34
    8020283a:	73672703          	lw	a4,1846(a4) # 80236f6c <sb+0xc>
    8020283e:	4785                	li	a5,1
    80202840:	04e7f663          	bgeu	a5,a4,8020288c <ialloc+0x6a>
    80202844:	8aaa                	mv	s5,a0
    80202846:	8b2e                	mv	s6,a1
    80202848:	4905                	li	s2,1
        struct buf *bp = bread(dev, IBLOCK(inum, sb));
    8020284a:	00034a17          	auipc	s4,0x34
    8020284e:	716a0a13          	add	s4,s4,1814 # 80236f60 <sb>
    80202852:	0049559b          	srlw	a1,s2,0x4
    80202856:	018a2783          	lw	a5,24(s4)
    8020285a:	9dbd                	addw	a1,a1,a5
    8020285c:	8556                	mv	a0,s5
    8020285e:	fffff097          	auipc	ra,0xfffff
    80202862:	6a6080e7          	jalr	1702(ra) # 80201f04 <bread>
    80202866:	84aa                	mv	s1,a0
        struct dinode *dip = (struct dinode*)bp->data + inum % IPB;
    80202868:	05850993          	add	s3,a0,88
    8020286c:	00f97793          	and	a5,s2,15
    80202870:	079a                	sll	a5,a5,0x6
    80202872:	99be                	add	s3,s3,a5
        if (dip->type == 0) {
    80202874:	00099783          	lh	a5,0(s3)
    80202878:	cf8d                	beqz	a5,802028b2 <ialloc+0x90>
        brelse(bp);
    8020287a:	fffff097          	auipc	ra,0xfffff
    8020287e:	7dc080e7          	jalr	2012(ra) # 80202056 <brelse>
    for (uint inum = 1; inum < sb.ninodes; inum++) {
    80202882:	2905                	addw	s2,s2,1
    80202884:	00ca2783          	lw	a5,12(s4)
    80202888:	fcf965e3          	bltu	s2,a5,80202852 <ialloc+0x30>
    panic("ialloc");
    8020288c:	00004517          	auipc	a0,0x4
    80202890:	0dc50513          	add	a0,a0,220 # 80206968 <syscalls+0x398>
    80202894:	ffffe097          	auipc	ra,0xffffe
    80202898:	b40080e7          	jalr	-1216(ra) # 802003d4 <panic>
    return 0;
    8020289c:	4501                	li	a0,0
}
    8020289e:	70e2                	ld	ra,56(sp)
    802028a0:	7442                	ld	s0,48(sp)
    802028a2:	74a2                	ld	s1,40(sp)
    802028a4:	7902                	ld	s2,32(sp)
    802028a6:	69e2                	ld	s3,24(sp)
    802028a8:	6a42                	ld	s4,16(sp)
    802028aa:	6aa2                	ld	s5,8(sp)
    802028ac:	6b02                	ld	s6,0(sp)
    802028ae:	6121                	add	sp,sp,64
    802028b0:	8082                	ret
            memset(dip, 0, sizeof(*dip));
    802028b2:	04000613          	li	a2,64
    802028b6:	4581                	li	a1,0
    802028b8:	854e                	mv	a0,s3
    802028ba:	ffffe097          	auipc	ra,0xffffe
    802028be:	0e8080e7          	jalr	232(ra) # 802009a2 <memset>
            dip->type = type;
    802028c2:	01699023          	sh	s6,0(s3)
            log_write(bp); // [恢复] 使用 log_write
    802028c6:	8526                	mv	a0,s1
    802028c8:	00001097          	auipc	ra,0x1
    802028cc:	e6a080e7          	jalr	-406(ra) # 80203732 <log_write>
            brelse(bp);
    802028d0:	8526                	mv	a0,s1
    802028d2:	fffff097          	auipc	ra,0xfffff
    802028d6:	784080e7          	jalr	1924(ra) # 80202056 <brelse>
            return iget(dev, inum);
    802028da:	85ca                	mv	a1,s2
    802028dc:	8556                	mv	a0,s5
    802028de:	00000097          	auipc	ra,0x0
    802028e2:	e86080e7          	jalr	-378(ra) # 80202764 <iget>
    802028e6:	bf65                	j	8020289e <ialloc+0x7c>

00000000802028e8 <idup>:
struct inode *idup(struct inode *ip) {
    802028e8:	1101                	add	sp,sp,-32
    802028ea:	ec06                	sd	ra,24(sp)
    802028ec:	e822                	sd	s0,16(sp)
    802028ee:	e426                	sd	s1,8(sp)
    802028f0:	1000                	add	s0,sp,32
    802028f2:	84aa                	mv	s1,a0
    acquire(&icache.lock);
    802028f4:	00034517          	auipc	a0,0x34
    802028f8:	68c50513          	add	a0,a0,1676 # 80236f80 <icache>
    802028fc:	ffffe097          	auipc	ra,0xffffe
    80202900:	f3e080e7          	jalr	-194(ra) # 8020083a <acquire>
    ip->ref++;
    80202904:	449c                	lw	a5,8(s1)
    80202906:	2785                	addw	a5,a5,1
    80202908:	c49c                	sw	a5,8(s1)
    release(&icache.lock);
    8020290a:	00034517          	auipc	a0,0x34
    8020290e:	67650513          	add	a0,a0,1654 # 80236f80 <icache>
    80202912:	ffffe097          	auipc	ra,0xffffe
    80202916:	01a080e7          	jalr	26(ra) # 8020092c <release>
}
    8020291a:	8526                	mv	a0,s1
    8020291c:	60e2                	ld	ra,24(sp)
    8020291e:	6442                	ld	s0,16(sp)
    80202920:	64a2                	ld	s1,8(sp)
    80202922:	6105                	add	sp,sp,32
    80202924:	8082                	ret

0000000080202926 <ilock>:
void ilock(struct inode *ip) {
    80202926:	1101                	add	sp,sp,-32
    80202928:	ec06                	sd	ra,24(sp)
    8020292a:	e822                	sd	s0,16(sp)
    8020292c:	e426                	sd	s1,8(sp)
    8020292e:	e04a                	sd	s2,0(sp)
    80202930:	1000                	add	s0,sp,32
    80202932:	84aa                	mv	s1,a0
    if (ip == 0 || ip->ref < 1)
    80202934:	c501                	beqz	a0,8020293c <ilock+0x16>
    80202936:	451c                	lw	a5,8(a0)
    80202938:	00f04a63          	bgtz	a5,8020294c <ilock+0x26>
        panic("ilock");
    8020293c:	00004517          	auipc	a0,0x4
    80202940:	ecc50513          	add	a0,a0,-308 # 80206808 <syscalls+0x238>
    80202944:	ffffe097          	auipc	ra,0xffffe
    80202948:	a90080e7          	jalr	-1392(ra) # 802003d4 <panic>
    acquiresleep(&ip->lock);
    8020294c:	01048513          	add	a0,s1,16
    80202950:	00001097          	auipc	ra,0x1
    80202954:	f0c080e7          	jalr	-244(ra) # 8020385c <acquiresleep>
    if (ip->valid == 0) {
    80202958:	40bc                	lw	a5,64(s1)
    8020295a:	c799                	beqz	a5,80202968 <ilock+0x42>
}
    8020295c:	60e2                	ld	ra,24(sp)
    8020295e:	6442                	ld	s0,16(sp)
    80202960:	64a2                	ld	s1,8(sp)
    80202962:	6902                	ld	s2,0(sp)
    80202964:	6105                	add	sp,sp,32
    80202966:	8082                	ret
        struct buf *bp = bread(ip->dev, IBLOCK(ip->inum, sb));
    80202968:	40dc                	lw	a5,4(s1)
    8020296a:	0047d79b          	srlw	a5,a5,0x4
    8020296e:	00034597          	auipc	a1,0x34
    80202972:	60a5a583          	lw	a1,1546(a1) # 80236f78 <sb+0x18>
    80202976:	9dbd                	addw	a1,a1,a5
    80202978:	4088                	lw	a0,0(s1)
    8020297a:	fffff097          	auipc	ra,0xfffff
    8020297e:	58a080e7          	jalr	1418(ra) # 80201f04 <bread>
    80202982:	892a                	mv	s2,a0
        struct dinode *dip = (struct dinode*)bp->data + ip->inum % IPB;
    80202984:	05850593          	add	a1,a0,88
    80202988:	40dc                	lw	a5,4(s1)
    8020298a:	8bbd                	and	a5,a5,15
    8020298c:	079a                	sll	a5,a5,0x6
    8020298e:	95be                	add	a1,a1,a5
        ip->type = dip->type;
    80202990:	00059783          	lh	a5,0(a1)
    80202994:	04f49223          	sh	a5,68(s1)
        ip->major = dip->major;
    80202998:	00259783          	lh	a5,2(a1)
    8020299c:	04f49323          	sh	a5,70(s1)
        ip->minor = dip->minor;
    802029a0:	00459783          	lh	a5,4(a1)
    802029a4:	04f49423          	sh	a5,72(s1)
        ip->nlink = dip->nlink;
    802029a8:	00659783          	lh	a5,6(a1)
    802029ac:	04f49523          	sh	a5,74(s1)
        ip->size = dip->size;
    802029b0:	459c                	lw	a5,8(a1)
    802029b2:	c4fc                	sw	a5,76(s1)
        memmove(ip->addrs, dip->addrs, sizeof(ip->addrs));
    802029b4:	03400613          	li	a2,52
    802029b8:	05b1                	add	a1,a1,12
    802029ba:	05048513          	add	a0,s1,80
    802029be:	ffffe097          	auipc	ra,0xffffe
    802029c2:	006080e7          	jalr	6(ra) # 802009c4 <memmove>
        ip->valid = 1;
    802029c6:	4785                	li	a5,1
    802029c8:	c0bc                	sw	a5,64(s1)
        brelse(bp);
    802029ca:	854a                	mv	a0,s2
    802029cc:	fffff097          	auipc	ra,0xfffff
    802029d0:	68a080e7          	jalr	1674(ra) # 80202056 <brelse>
        if (ip->type == 0)
    802029d4:	04449783          	lh	a5,68(s1)
    802029d8:	f3d1                	bnez	a5,8020295c <ilock+0x36>
            panic("ilock: no type");
    802029da:	00004517          	auipc	a0,0x4
    802029de:	e3650513          	add	a0,a0,-458 # 80206810 <syscalls+0x240>
    802029e2:	ffffe097          	auipc	ra,0xffffe
    802029e6:	9f2080e7          	jalr	-1550(ra) # 802003d4 <panic>
}
    802029ea:	bf8d                	j	8020295c <ilock+0x36>

00000000802029ec <iunlock>:
void iunlock(struct inode *ip) {
    802029ec:	1101                	add	sp,sp,-32
    802029ee:	ec06                	sd	ra,24(sp)
    802029f0:	e822                	sd	s0,16(sp)
    802029f2:	e426                	sd	s1,8(sp)
    802029f4:	1000                	add	s0,sp,32
    802029f6:	84aa                	mv	s1,a0
    if (ip == 0 || !holdingsleep(&ip->lock))
    802029f8:	c519                	beqz	a0,80202a06 <iunlock+0x1a>
    802029fa:	0541                	add	a0,a0,16
    802029fc:	00001097          	auipc	ra,0x1
    80202a00:	ef8080e7          	jalr	-264(ra) # 802038f4 <holdingsleep>
    80202a04:	e909                	bnez	a0,80202a16 <iunlock+0x2a>
        panic("iunlock");
    80202a06:	00004517          	auipc	a0,0x4
    80202a0a:	e1a50513          	add	a0,a0,-486 # 80206820 <syscalls+0x250>
    80202a0e:	ffffe097          	auipc	ra,0xffffe
    80202a12:	9c6080e7          	jalr	-1594(ra) # 802003d4 <panic>
    releasesleep(&ip->lock);
    80202a16:	01048513          	add	a0,s1,16
    80202a1a:	00001097          	auipc	ra,0x1
    80202a1e:	e96080e7          	jalr	-362(ra) # 802038b0 <releasesleep>
}
    80202a22:	60e2                	ld	ra,24(sp)
    80202a24:	6442                	ld	s0,16(sp)
    80202a26:	64a2                	ld	s1,8(sp)
    80202a28:	6105                	add	sp,sp,32
    80202a2a:	8082                	ret

0000000080202a2c <iupdate>:
void iupdate(struct inode *ip) {
    80202a2c:	1101                	add	sp,sp,-32
    80202a2e:	ec06                	sd	ra,24(sp)
    80202a30:	e822                	sd	s0,16(sp)
    80202a32:	e426                	sd	s1,8(sp)
    80202a34:	e04a                	sd	s2,0(sp)
    80202a36:	1000                	add	s0,sp,32
    80202a38:	84aa                	mv	s1,a0
    struct buf *bp = bread(ip->dev, IBLOCK(ip->inum, sb));
    80202a3a:	415c                	lw	a5,4(a0)
    80202a3c:	0047d79b          	srlw	a5,a5,0x4
    80202a40:	00034597          	auipc	a1,0x34
    80202a44:	5385a583          	lw	a1,1336(a1) # 80236f78 <sb+0x18>
    80202a48:	9dbd                	addw	a1,a1,a5
    80202a4a:	4108                	lw	a0,0(a0)
    80202a4c:	fffff097          	auipc	ra,0xfffff
    80202a50:	4b8080e7          	jalr	1208(ra) # 80201f04 <bread>
    80202a54:	892a                	mv	s2,a0
    struct dinode *dip = (struct dinode*)bp->data + ip->inum % IPB;
    80202a56:	05850793          	add	a5,a0,88
    80202a5a:	40d8                	lw	a4,4(s1)
    80202a5c:	8b3d                	and	a4,a4,15
    80202a5e:	071a                	sll	a4,a4,0x6
    80202a60:	97ba                	add	a5,a5,a4
    dip->type = ip->type;
    80202a62:	04449703          	lh	a4,68(s1)
    80202a66:	00e79023          	sh	a4,0(a5)
    dip->major = ip->major;
    80202a6a:	04649703          	lh	a4,70(s1)
    80202a6e:	00e79123          	sh	a4,2(a5)
    dip->minor = ip->minor;
    80202a72:	04849703          	lh	a4,72(s1)
    80202a76:	00e79223          	sh	a4,4(a5)
    dip->nlink = ip->nlink;
    80202a7a:	04a49703          	lh	a4,74(s1)
    80202a7e:	00e79323          	sh	a4,6(a5)
    dip->size = ip->size;
    80202a82:	44f8                	lw	a4,76(s1)
    80202a84:	c798                	sw	a4,8(a5)
    memmove(dip->addrs, ip->addrs, sizeof(ip->addrs));
    80202a86:	03400613          	li	a2,52
    80202a8a:	05048593          	add	a1,s1,80
    80202a8e:	00c78513          	add	a0,a5,12
    80202a92:	ffffe097          	auipc	ra,0xffffe
    80202a96:	f32080e7          	jalr	-206(ra) # 802009c4 <memmove>
    log_write(bp); // [恢复] 使用 log_write
    80202a9a:	854a                	mv	a0,s2
    80202a9c:	00001097          	auipc	ra,0x1
    80202aa0:	c96080e7          	jalr	-874(ra) # 80203732 <log_write>
    brelse(bp);
    80202aa4:	854a                	mv	a0,s2
    80202aa6:	fffff097          	auipc	ra,0xfffff
    80202aaa:	5b0080e7          	jalr	1456(ra) # 80202056 <brelse>
}
    80202aae:	60e2                	ld	ra,24(sp)
    80202ab0:	6442                	ld	s0,16(sp)
    80202ab2:	64a2                	ld	s1,8(sp)
    80202ab4:	6902                	ld	s2,0(sp)
    80202ab6:	6105                	add	sp,sp,32
    80202ab8:	8082                	ret

0000000080202aba <itrunc>:
void itrunc(struct inode *ip) {
    80202aba:	7179                	add	sp,sp,-48
    80202abc:	f406                	sd	ra,40(sp)
    80202abe:	f022                	sd	s0,32(sp)
    80202ac0:	ec26                	sd	s1,24(sp)
    80202ac2:	e84a                	sd	s2,16(sp)
    80202ac4:	e44e                	sd	s3,8(sp)
    80202ac6:	e052                	sd	s4,0(sp)
    80202ac8:	1800                	add	s0,sp,48
    80202aca:	89aa                	mv	s3,a0
    for (int i = 0; i < NDIRECT; i++) {
    80202acc:	05050493          	add	s1,a0,80
    80202ad0:	08050913          	add	s2,a0,128
    80202ad4:	a021                	j	80202adc <itrunc+0x22>
    80202ad6:	0491                	add	s1,s1,4
    80202ad8:	01248d63          	beq	s1,s2,80202af2 <itrunc+0x38>
        if (ip->addrs[i]) {
    80202adc:	408c                	lw	a1,0(s1)
    80202ade:	dde5                	beqz	a1,80202ad6 <itrunc+0x1c>
            bfree(ip->dev, ip->addrs[i]);
    80202ae0:	0009a503          	lw	a0,0(s3)
    80202ae4:	fffff097          	auipc	ra,0xfffff
    80202ae8:	750080e7          	jalr	1872(ra) # 80202234 <bfree>
            ip->addrs[i] = 0;
    80202aec:	0004a023          	sw	zero,0(s1)
    80202af0:	b7dd                	j	80202ad6 <itrunc+0x1c>
    if (ip->addrs[NDIRECT]) {
    80202af2:	0809a583          	lw	a1,128(s3)
    80202af6:	e185                	bnez	a1,80202b16 <itrunc+0x5c>
    ip->size = 0;
    80202af8:	0409a623          	sw	zero,76(s3)
    iupdate(ip);
    80202afc:	854e                	mv	a0,s3
    80202afe:	00000097          	auipc	ra,0x0
    80202b02:	f2e080e7          	jalr	-210(ra) # 80202a2c <iupdate>
}
    80202b06:	70a2                	ld	ra,40(sp)
    80202b08:	7402                	ld	s0,32(sp)
    80202b0a:	64e2                	ld	s1,24(sp)
    80202b0c:	6942                	ld	s2,16(sp)
    80202b0e:	69a2                	ld	s3,8(sp)
    80202b10:	6a02                	ld	s4,0(sp)
    80202b12:	6145                	add	sp,sp,48
    80202b14:	8082                	ret
        struct buf *bp = bread(ip->dev, ip->addrs[NDIRECT]);
    80202b16:	0009a503          	lw	a0,0(s3)
    80202b1a:	fffff097          	auipc	ra,0xfffff
    80202b1e:	3ea080e7          	jalr	1002(ra) # 80201f04 <bread>
    80202b22:	8a2a                	mv	s4,a0
        for (int j = 0; j < NINDIRECT; j++) {
    80202b24:	05850493          	add	s1,a0,88
    80202b28:	45850913          	add	s2,a0,1112
    80202b2c:	a021                	j	80202b34 <itrunc+0x7a>
    80202b2e:	0491                	add	s1,s1,4
    80202b30:	01248b63          	beq	s1,s2,80202b46 <itrunc+0x8c>
            if (a[j])
    80202b34:	408c                	lw	a1,0(s1)
    80202b36:	dde5                	beqz	a1,80202b2e <itrunc+0x74>
                bfree(ip->dev, a[j]);
    80202b38:	0009a503          	lw	a0,0(s3)
    80202b3c:	fffff097          	auipc	ra,0xfffff
    80202b40:	6f8080e7          	jalr	1784(ra) # 80202234 <bfree>
    80202b44:	b7ed                	j	80202b2e <itrunc+0x74>
        brelse(bp);
    80202b46:	8552                	mv	a0,s4
    80202b48:	fffff097          	auipc	ra,0xfffff
    80202b4c:	50e080e7          	jalr	1294(ra) # 80202056 <brelse>
        bfree(ip->dev, ip->addrs[NDIRECT]);
    80202b50:	0809a583          	lw	a1,128(s3)
    80202b54:	0009a503          	lw	a0,0(s3)
    80202b58:	fffff097          	auipc	ra,0xfffff
    80202b5c:	6dc080e7          	jalr	1756(ra) # 80202234 <bfree>
        ip->addrs[NDIRECT] = 0;
    80202b60:	0809a023          	sw	zero,128(s3)
    80202b64:	bf51                	j	80202af8 <itrunc+0x3e>

0000000080202b66 <iput>:
void iput(struct inode *ip) {
    80202b66:	1101                	add	sp,sp,-32
    80202b68:	ec06                	sd	ra,24(sp)
    80202b6a:	e822                	sd	s0,16(sp)
    80202b6c:	e426                	sd	s1,8(sp)
    80202b6e:	e04a                	sd	s2,0(sp)
    80202b70:	1000                	add	s0,sp,32
    80202b72:	84aa                	mv	s1,a0
    acquiresleep(&ip->lock);
    80202b74:	01050913          	add	s2,a0,16
    80202b78:	854a                	mv	a0,s2
    80202b7a:	00001097          	auipc	ra,0x1
    80202b7e:	ce2080e7          	jalr	-798(ra) # 8020385c <acquiresleep>
    if (ip->valid && ip->nlink == 0 && ip->ref == 1) {
    80202b82:	40bc                	lw	a5,64(s1)
    80202b84:	cb81                	beqz	a5,80202b94 <iput+0x2e>
    80202b86:	04a49783          	lh	a5,74(s1)
    80202b8a:	e789                	bnez	a5,80202b94 <iput+0x2e>
    80202b8c:	4498                	lw	a4,8(s1)
    80202b8e:	4785                	li	a5,1
    80202b90:	04f70063          	beq	a4,a5,80202bd0 <iput+0x6a>
    releasesleep(&ip->lock);
    80202b94:	854a                	mv	a0,s2
    80202b96:	00001097          	auipc	ra,0x1
    80202b9a:	d1a080e7          	jalr	-742(ra) # 802038b0 <releasesleep>
    acquire(&icache.lock);
    80202b9e:	00034517          	auipc	a0,0x34
