
kernel/kernel.elf:     file format elf64-littleriscv


Disassembly of section .text:

0000000080000000 <_entry>:
.section .text.start
.globl _entry

_entry:
    # 设置栈指针
    li sp, 0x80010000
    80000000:	00008137          	lui	sp,0x8
    80000004:	2105                	addw	sp,sp,1 # 8001 <_entry-0x7fff7fff>
    80000006:	0142                	sll	sp,sp,0x10
    
    # 输出启动标记
    li t0, 0x10000000    # UART基地址
    80000008:	100002b7          	lui	t0,0x10000
    li t1, 'S'           # 启动标记
    8000000c:	05300313          	li	t1,83
    sb t1, 0(t0)
    80000010:	00628023          	sb	t1,0(t0) # 10000000 <_entry-0x70000000>
    
    # 清零BSS段
    la t0, bss_start
    80000014:	0000a297          	auipc	t0,0xa
    80000018:	fec28293          	add	t0,t0,-20 # 8000a000 <panicking>
    la t1, bss_end
    8000001c:	00011317          	auipc	t1,0x11
    80000020:	5cc30313          	add	t1,t1,1484 # 800115e8 <bss_end>

0000000080000024 <clear_bss>:
    
clear_bss:
    bge t0, t1, call_start
    80000024:	0062d663          	bge	t0,t1,80000030 <call_start>
    sb zero, 0(t0)
    80000028:	00028023          	sb	zero,0(t0)
    addi t0, t0, 1
    8000002c:	0285                	add	t0,t0,1
    j clear_bss
    8000002e:	bfdd                	j	80000024 <clear_bss>

0000000080000030 <call_start>:

call_start:
    # 输出准备标记
    li t0, 0x10000000
    80000030:	100002b7          	lui	t0,0x10000
    li t1, 'P'
    80000034:	05000313          	li	t1,80
    sb t1, 0(t0)
    80000038:	00628023          	sb	t1,0(t0) # 10000000 <_entry-0x70000000>
    
    # 跳转到start()在M模式初始化
    # start()会设置好中断委托，然后通过mret切换到S模式调用main()
    call start
    8000003c:	00000097          	auipc	ra,0x0
    80000040:	00a080e7          	jalr	10(ra) # 80000046 <start>

0000000080000044 <infinite_loop>:
    
    # 无限循环（不应该到达这里）
infinite_loop:
    j infinite_loop
    80000044:	a001                	j	80000044 <infinite_loop>

0000000080000046 <start>:

// 每个hart一个临时栈
__attribute__ ((aligned (16))) char m_stack0[4096];

void start()
{
    80000046:	715d                	add	sp,sp,-80
    80000048:	e486                	sd	ra,72(sp)
    8000004a:	e0a2                	sd	s0,64(sp)
    8000004c:	0880                	add	s0,sp,80
    // 设置mstatus的MPP字段为Supervisor模式
    unsigned long x = r_mstatus();
    8000004e:	300027f3          	csrr	a5,mstatus
    80000052:	fef43423          	sd	a5,-24(s0)
    80000056:	fe843783          	ld	a5,-24(s0)
    8000005a:	fef43023          	sd	a5,-32(s0)
    x &= ~MSTATUS_MPP_MASK;
    8000005e:	fe043703          	ld	a4,-32(s0)
    80000062:	77f9                	lui	a5,0xffffe
    80000064:	7ff78793          	add	a5,a5,2047 # ffffffffffffe7ff <end+0xffffffff7ffec7ff>
    80000068:	8ff9                	and	a5,a5,a4
    8000006a:	fef43023          	sd	a5,-32(s0)
    x |= MSTATUS_MPP_S;
    8000006e:	fe043703          	ld	a4,-32(s0)
    80000072:	6785                	lui	a5,0x1
    80000074:	80078793          	add	a5,a5,-2048 # 800 <_entry-0x7ffff800>
    80000078:	8fd9                	or	a5,a5,a4
    8000007a:	fef43023          	sd	a5,-32(s0)
    w_mstatus(x);
    8000007e:	fe043783          	ld	a5,-32(s0)
    80000082:	30079073          	csrw	mstatus,a5

    // 设置mepc为main函数地址
    w_mepc((uint64)main);
    80000086:	00000797          	auipc	a5,0x0
    8000008a:	5c478793          	add	a5,a5,1476 # 8000064a <main>
    8000008e:	34179073          	csrw	mepc,a5

    // 禁用S模式分页
    w_satp(0);
    80000092:	4781                	li	a5,0
    80000094:	18079073          	csrw	satp,a5

    // 配置中断委托
    w_medeleg(0xffff);
    80000098:	67c1                	lui	a5,0x10
    8000009a:	37fd                	addw	a5,a5,-1 # ffff <_entry-0x7fff0001>
    8000009c:	30279073          	csrw	medeleg,a5
    w_mideleg((1 << IRQ_S_SOFT) | (1 << IRQ_S_TIMER) | (1 << IRQ_S_EXT));
    800000a0:	22200793          	li	a5,546
    800000a4:	30379073          	csrw	mideleg,a5

    // 启用S模式中断
    w_sie(r_sie() | SIE_SEIE | SIE_STIE | SIE_SSIE);
    800000a8:	104027f3          	csrr	a5,sie
    800000ac:	fcf43c23          	sd	a5,-40(s0)
    800000b0:	fd843783          	ld	a5,-40(s0)
    800000b4:	2227e793          	or	a5,a5,546
    800000b8:	10479073          	csrw	sie,a5

    // 配置PMP
    w_pmpaddr0(0x3fffffffffffffull);
    800000bc:	57fd                	li	a5,-1
    800000be:	83a9                	srl	a5,a5,0xa
    800000c0:	3b079073          	csrw	pmpaddr0,a5
    w_pmpcfg0(0xf);
    800000c4:	47bd                	li	a5,15
    800000c6:	3a079073          	csrw	pmpcfg0,a5

    // 配置M模式时钟中断
    timer_init_hart();
    800000ca:	00003097          	auipc	ra,0x3
    800000ce:	598080e7          	jalr	1432(ra) # 80003662 <timer_init_hart>

    // 设置M模式中断向量
    w_mtvec((uint64)timervec);
    800000d2:	00003797          	auipc	a5,0x3
    800000d6:	51e78793          	add	a5,a5,1310 # 800035f0 <timervec>
    800000da:	30579073          	csrw	mtvec,a5

    // 启用M模式中断
    w_mstatus(r_mstatus() | MSTATUS_MIE);
    800000de:	300027f3          	csrr	a5,mstatus
    800000e2:	fcf43823          	sd	a5,-48(s0)
    800000e6:	fd043783          	ld	a5,-48(s0)
    800000ea:	0087e793          	or	a5,a5,8
    800000ee:	30079073          	csrw	mstatus,a5
    w_mie(r_mie() | MIE_MTIE);
    800000f2:	304027f3          	csrr	a5,mie
    800000f6:	fcf43423          	sd	a5,-56(s0)
    800000fa:	fc843783          	ld	a5,-56(s0)
    800000fe:	0807e793          	or	a5,a5,128
    80000102:	30479073          	csrw	mie,a5

    // 设置hart ID
    int id = r_mhartid();
    80000106:	f14027f3          	csrr	a5,mhartid
    8000010a:	fcf43023          	sd	a5,-64(s0)
    8000010e:	fc043783          	ld	a5,-64(s0)
    80000112:	faf42e23          	sw	a5,-68(s0)
    w_tp(id);
    80000116:	fbc42783          	lw	a5,-68(s0)
    8000011a:	823e                	mv	tp,a5

    // 切换到S模式
    asm volatile("mret");
    8000011c:	30200073          	mret
    80000120:	0001                	nop
    80000122:	60a6                	ld	ra,72(sp)
    80000124:	6406                	ld	s0,64(sp)
    80000126:	6161                	add	sp,sp,80
    80000128:	8082                	ret

000000008000012a <test_getpid>:
extern struct proc proc[];
extern struct proc *initproc;

// ==================== 系统调用测试任务 ====================

void test_getpid(void) {
    8000012a:	1101                	add	sp,sp,-32
    8000012c:	ec06                	sd	ra,24(sp)
    8000012e:	e822                	sd	s0,16(sp)
    80000130:	1000                	add	s0,sp,32
    printf("\n=== Test 1: sys_getpid ===\n");
    80000132:	00006517          	auipc	a0,0x6
    80000136:	fee50513          	add	a0,a0,-18 # 80006120 <userret+0xbc>
    8000013a:	00001097          	auipc	ra,0x1
    8000013e:	aac080e7          	jalr	-1364(ra) # 80000be6 <printf>
    
    register uint64 a7 asm("a7") = SYS_getpid;
    80000142:	4891                	li	a7,4
    register uint64 a0 asm("a0");
    
    asm volatile("ecall" : "=r"(a0) : "r"(a7));
    80000144:	00000073          	ecall
    
    // ⭐ 修复：立即保存返回值到局部变量
    int result = (int)a0;
    80000148:	87aa                	mv	a5,a0
    8000014a:	fef42623          	sw	a5,-20(s0)
    int expected = myproc()->pid;
    8000014e:	00004097          	auipc	ra,0x4
    80000152:	88a080e7          	jalr	-1910(ra) # 800039d8 <myproc>
    80000156:	87aa                	mv	a5,a0
    80000158:	439c                	lw	a5,0(a5)
    8000015a:	fef42423          	sw	a5,-24(s0)
    
    printf("sys_getpid() returned: %d\n", result);
    8000015e:	fec42783          	lw	a5,-20(s0)
    80000162:	85be                	mv	a1,a5
    80000164:	00006517          	auipc	a0,0x6
    80000168:	fdc50513          	add	a0,a0,-36 # 80006140 <userret+0xdc>
    8000016c:	00001097          	auipc	ra,0x1
    80000170:	a7a080e7          	jalr	-1414(ra) # 80000be6 <printf>
    printf("myproc()->pid = %d\n", expected);
    80000174:	fe842783          	lw	a5,-24(s0)
    80000178:	85be                	mv	a1,a5
    8000017a:	00006517          	auipc	a0,0x6
    8000017e:	fe650513          	add	a0,a0,-26 # 80006160 <userret+0xfc>
    80000182:	00001097          	auipc	ra,0x1
    80000186:	a64080e7          	jalr	-1436(ra) # 80000be6 <printf>
    
    if(result == expected) {
    8000018a:	fec42783          	lw	a5,-20(s0)
    8000018e:	873e                	mv	a4,a5
    80000190:	fe842783          	lw	a5,-24(s0)
    80000194:	2701                	sext.w	a4,a4
    80000196:	2781                	sext.w	a5,a5
    80000198:	00f71b63          	bne	a4,a5,800001ae <test_getpid+0x84>
        printf("✓ sys_getpid test PASSED\n");
    8000019c:	00006517          	auipc	a0,0x6
    800001a0:	fdc50513          	add	a0,a0,-36 # 80006178 <userret+0x114>
    800001a4:	00001097          	auipc	ra,0x1
    800001a8:	a42080e7          	jalr	-1470(ra) # 80000be6 <printf>
    } else {
        printf("✗ sys_getpid test FAILED\n");
    }
}
    800001ac:	a809                	j	800001be <test_getpid+0x94>
        printf("✗ sys_getpid test FAILED\n");
    800001ae:	00006517          	auipc	a0,0x6
    800001b2:	fea50513          	add	a0,a0,-22 # 80006198 <userret+0x134>
    800001b6:	00001097          	auipc	ra,0x1
    800001ba:	a30080e7          	jalr	-1488(ra) # 80000be6 <printf>
}
    800001be:	0001                	nop
    800001c0:	60e2                	ld	ra,24(sp)
    800001c2:	6442                	ld	s0,16(sp)
    800001c4:	6105                	add	sp,sp,32
    800001c6:	8082                	ret

00000000800001c8 <test_write>:

void test_write(void) {
    800001c8:	1101                	add	sp,sp,-32
    800001ca:	ec06                	sd	ra,24(sp)
    800001cc:	e822                	sd	s0,16(sp)
    800001ce:	1000                	add	s0,sp,32
    printf("\n=== Test 2: sys_write ===\n");
    800001d0:	00006517          	auipc	a0,0x6
    800001d4:	fe850513          	add	a0,a0,-24 # 800061b8 <userret+0x154>
    800001d8:	00001097          	auipc	ra,0x1
    800001dc:	a0e080e7          	jalr	-1522(ra) # 80000be6 <printf>
    
    char *msg = "Hello from sys_write!\n";
    800001e0:	00006797          	auipc	a5,0x6
    800001e4:	ff878793          	add	a5,a5,-8 # 800061d8 <userret+0x174>
    800001e8:	fef43423          	sd	a5,-24(s0)
    int msg_len = 22;
    800001ec:	47d9                	li	a5,22
    800001ee:	fef42223          	sw	a5,-28(s0)
    
    register uint64 a7 asm("a7") = SYS_write;
    800001f2:	489d                	li	a7,7
    register uint64 a0 asm("a0") = 1;
    800001f4:	4505                	li	a0,1
    register uint64 a1 asm("a1") = (uint64)msg;
    800001f6:	fe843783          	ld	a5,-24(s0)
    800001fa:	85be                	mv	a1,a5
    register uint64 a2 asm("a2") = msg_len;
    800001fc:	fe442783          	lw	a5,-28(s0)
    80000200:	863e                	mv	a2,a5
    
    asm volatile("ecall" : "+r"(a0) : "r"(a7), "r"(a1), "r"(a2));
    80000202:	00000073          	ecall
    
    // ⭐ 修复：立即保存返回值
    int result = (int)a0;
    80000206:	87aa                	mv	a5,a0
    80000208:	fef42023          	sw	a5,-32(s0)
    
    printf("sys_write() returned: %d\n", result);
    8000020c:	fe042783          	lw	a5,-32(s0)
    80000210:	85be                	mv	a1,a5
    80000212:	00006517          	auipc	a0,0x6
    80000216:	fde50513          	add	a0,a0,-34 # 800061f0 <userret+0x18c>
    8000021a:	00001097          	auipc	ra,0x1
    8000021e:	9cc080e7          	jalr	-1588(ra) # 80000be6 <printf>
    
    if(result == msg_len) {
    80000222:	fe042783          	lw	a5,-32(s0)
    80000226:	873e                	mv	a4,a5
    80000228:	fe442783          	lw	a5,-28(s0)
    8000022c:	2701                	sext.w	a4,a4
    8000022e:	2781                	sext.w	a5,a5
    80000230:	00f71b63          	bne	a4,a5,80000246 <test_write+0x7e>
        printf("✓ sys_write test PASSED\n");
    80000234:	00006517          	auipc	a0,0x6
    80000238:	fdc50513          	add	a0,a0,-36 # 80006210 <userret+0x1ac>
    8000023c:	00001097          	auipc	ra,0x1
    80000240:	9aa080e7          	jalr	-1622(ra) # 80000be6 <printf>
    } else {
        printf("✗ sys_write test FAILED\n");
    }
}
    80000244:	a809                	j	80000256 <test_write+0x8e>
        printf("✗ sys_write test FAILED\n");
    80000246:	00006517          	auipc	a0,0x6
    8000024a:	fea50513          	add	a0,a0,-22 # 80006230 <userret+0x1cc>
    8000024e:	00001097          	auipc	ra,0x1
    80000252:	998080e7          	jalr	-1640(ra) # 80000be6 <printf>
}
    80000256:	0001                	nop
    80000258:	60e2                	ld	ra,24(sp)
    8000025a:	6442                	ld	s0,16(sp)
    8000025c:	6105                	add	sp,sp,32
    8000025e:	8082                	ret

0000000080000260 <test_multiple_syscalls>:

void test_multiple_syscalls(void) {
    80000260:	1101                	add	sp,sp,-32
    80000262:	ec06                	sd	ra,24(sp)
    80000264:	e822                	sd	s0,16(sp)
    80000266:	1000                	add	s0,sp,32
    printf("\n=== Test 3: Multiple System Calls ===\n");
    80000268:	00006517          	auipc	a0,0x6
    8000026c:	fe850513          	add	a0,a0,-24 # 80006250 <userret+0x1ec>
    80000270:	00001097          	auipc	ra,0x1
    80000274:	976080e7          	jalr	-1674(ra) # 80000be6 <printf>
    
    for(int i = 0; i < 5; i++) {
    80000278:	fe042623          	sw	zero,-20(s0)
    8000027c:	a825                	j	800002b4 <test_multiple_syscalls+0x54>
        register uint64 a7 asm("a7") = SYS_getpid;
    8000027e:	4891                	li	a7,4
        register uint64 a0 asm("a0");
        
        asm volatile("ecall" : "=r"(a0) : "r"(a7));
    80000280:	00000073          	ecall
        
        // ⭐ 修复：立即保存返回值
        int result = (int)a0;
    80000284:	87aa                	mv	a5,a0
    80000286:	fef42423          	sw	a5,-24(s0)
        
        printf("Call %d: getpid() = %d\n", i+1, result);
    8000028a:	fec42783          	lw	a5,-20(s0)
    8000028e:	2785                	addw	a5,a5,1
    80000290:	2781                	sext.w	a5,a5
    80000292:	fe842703          	lw	a4,-24(s0)
    80000296:	863a                	mv	a2,a4
    80000298:	85be                	mv	a1,a5
    8000029a:	00006517          	auipc	a0,0x6
    8000029e:	fde50513          	add	a0,a0,-34 # 80006278 <userret+0x214>
    800002a2:	00001097          	auipc	ra,0x1
    800002a6:	944080e7          	jalr	-1724(ra) # 80000be6 <printf>
    for(int i = 0; i < 5; i++) {
    800002aa:	fec42783          	lw	a5,-20(s0)
    800002ae:	2785                	addw	a5,a5,1
    800002b0:	fef42623          	sw	a5,-20(s0)
    800002b4:	fec42783          	lw	a5,-20(s0)
    800002b8:	0007871b          	sext.w	a4,a5
    800002bc:	4791                	li	a5,4
    800002be:	fce7d0e3          	bge	a5,a4,8000027e <test_multiple_syscalls+0x1e>
    }
    
    printf("✓ Multiple syscalls test PASSED\n");
    800002c2:	00006517          	auipc	a0,0x6
    800002c6:	fce50513          	add	a0,a0,-50 # 80006290 <userret+0x22c>
    800002ca:	00001097          	auipc	ra,0x1
    800002ce:	91c080e7          	jalr	-1764(ra) # 80000be6 <printf>
}
    800002d2:	0001                	nop
    800002d4:	60e2                	ld	ra,24(sp)
    800002d6:	6442                	ld	s0,16(sp)
    800002d8:	6105                	add	sp,sp,32
    800002da:	8082                	ret

00000000800002dc <test_syscall_parameters>:

void test_syscall_parameters(void) {
    800002dc:	7139                	add	sp,sp,-64
    800002de:	fc06                	sd	ra,56(sp)
    800002e0:	f822                	sd	s0,48(sp)
    800002e2:	0080                	add	s0,sp,64
    printf("\n=== Test 4: System Call Parameters ===\n");
    800002e4:	00006517          	auipc	a0,0x6
    800002e8:	fd450513          	add	a0,a0,-44 # 800062b8 <userret+0x254>
    800002ec:	00001097          	auipc	ra,0x1
    800002f0:	8fa080e7          	jalr	-1798(ra) # 80000be6 <printf>
    
    char msg1[] = "First message\n";
    800002f4:	00006797          	auipc	a5,0x6
    800002f8:	01c78793          	add	a5,a5,28 # 80006310 <userret+0x2ac>
    800002fc:	6398                	ld	a4,0(a5)
    800002fe:	fee43023          	sd	a4,-32(s0)
    80000302:	4798                	lw	a4,8(a5)
    80000304:	fee42423          	sw	a4,-24(s0)
    80000308:	00c7d703          	lhu	a4,12(a5)
    8000030c:	fee41623          	sh	a4,-20(s0)
    80000310:	00e7c783          	lbu	a5,14(a5)
    80000314:	fef40723          	sb	a5,-18(s0)
    char msg2[] = "Second message\n";
    80000318:	00006797          	auipc	a5,0x6
    8000031c:	00878793          	add	a5,a5,8 # 80006320 <userret+0x2bc>
    80000320:	6398                	ld	a4,0(a5)
    80000322:	fce43823          	sd	a4,-48(s0)
    80000326:	679c                	ld	a5,8(a5)
    80000328:	fcf43c23          	sd	a5,-40(s0)
    char msg3[] = "Third message\n";
    8000032c:	00006797          	auipc	a5,0x6
    80000330:	00478793          	add	a5,a5,4 # 80006330 <userret+0x2cc>
    80000334:	6398                	ld	a4,0(a5)
    80000336:	fce43023          	sd	a4,-64(s0)
    8000033a:	4798                	lw	a4,8(a5)
    8000033c:	fce42423          	sw	a4,-56(s0)
    80000340:	00c7d703          	lhu	a4,12(a5)
    80000344:	fce41623          	sh	a4,-52(s0)
    80000348:	00e7c783          	lbu	a5,14(a5)
    8000034c:	fcf40723          	sb	a5,-50(s0)
    
    register uint64 a7 asm("a7") = SYS_write;
    80000350:	489d                	li	a7,7
    register uint64 a0 asm("a0") = 1;
    80000352:	4505                	li	a0,1
    register uint64 a1 asm("a1") = (uint64)msg1;
    80000354:	fe040793          	add	a5,s0,-32
    80000358:	85be                	mv	a1,a5
    register uint64 a2 asm("a2") = 14;
    8000035a:	4639                	li	a2,14
    asm volatile("ecall" : "+r"(a0) : "r"(a7), "r"(a1), "r"(a2));
    8000035c:	00000073          	ecall
    
    a0 = 1;
    80000360:	4505                	li	a0,1
    a1 = (uint64)msg2;
    80000362:	fd040793          	add	a5,s0,-48
    80000366:	85be                	mv	a1,a5
    a2 = 15;
    80000368:	463d                	li	a2,15
    asm volatile("ecall" : "+r"(a0) : "r"(a7), "r"(a1), "r"(a2));
    8000036a:	00000073          	ecall
    
    a0 = 1;
    8000036e:	4505                	li	a0,1
    a1 = (uint64)msg3;
    80000370:	fc040793          	add	a5,s0,-64
    80000374:	85be                	mv	a1,a5
    a2 = 14;
    80000376:	4639                	li	a2,14
    asm volatile("ecall" : "+r"(a0) : "r"(a7), "r"(a1), "r"(a2));
    80000378:	00000073          	ecall
    
    printf("✓ Parameter passing test PASSED\n");
    8000037c:	00006517          	auipc	a0,0x6
    80000380:	f6c50513          	add	a0,a0,-148 # 800062e8 <userret+0x284>
    80000384:	00001097          	auipc	ra,0x1
    80000388:	862080e7          	jalr	-1950(ra) # 80000be6 <printf>
}
    8000038c:	0001                	nop
    8000038e:	70e2                	ld	ra,56(sp)
    80000390:	7442                	ld	s0,48(sp)
    80000392:	6121                	add	sp,sp,64
    80000394:	8082                	ret

0000000080000396 <test_invalid_syscall>:

void test_invalid_syscall(void) {
    80000396:	1101                	add	sp,sp,-32
    80000398:	ec06                	sd	ra,24(sp)
    8000039a:	e822                	sd	s0,16(sp)
    8000039c:	1000                	add	s0,sp,32
    printf("\n=== Test 5: Invalid System Call ===\n");
    8000039e:	00006517          	auipc	a0,0x6
    800003a2:	fa250513          	add	a0,a0,-94 # 80006340 <userret+0x2dc>
    800003a6:	00001097          	auipc	ra,0x1
    800003aa:	840080e7          	jalr	-1984(ra) # 80000be6 <printf>
    
    register uint64 a7 asm("a7") = 999;
    800003ae:	3e700893          	li	a7,999
    register uint64 a0 asm("a0");
    
    asm volatile("ecall" : "=r"(a0) : "r"(a7));
    800003b2:	00000073          	ecall
    
    // ⭐ 修复：立即保存返回值
    int result = (int)a0;
    800003b6:	87aa                	mv	a5,a0
    800003b8:	fef42623          	sw	a5,-20(s0)
    
    printf("Invalid syscall returned: %d\n", result);
    800003bc:	fec42783          	lw	a5,-20(s0)
    800003c0:	85be                	mv	a1,a5
    800003c2:	00006517          	auipc	a0,0x6
    800003c6:	fa650513          	add	a0,a0,-90 # 80006368 <userret+0x304>
    800003ca:	00001097          	auipc	ra,0x1
    800003ce:	81c080e7          	jalr	-2020(ra) # 80000be6 <printf>
    
    if(result == -1) {
    800003d2:	fec42783          	lw	a5,-20(s0)
    800003d6:	0007871b          	sext.w	a4,a5
    800003da:	57fd                	li	a5,-1
    800003dc:	00f71b63          	bne	a4,a5,800003f2 <test_invalid_syscall+0x5c>
        printf("✓ Invalid syscall handling PASSED\n");
    800003e0:	00006517          	auipc	a0,0x6
    800003e4:	fa850513          	add	a0,a0,-88 # 80006388 <userret+0x324>
    800003e8:	00000097          	auipc	ra,0x0
    800003ec:	7fe080e7          	jalr	2046(ra) # 80000be6 <printf>
    } else {
        printf("✗ Invalid syscall handling FAILED\n");
    }
}
    800003f0:	a809                	j	80000402 <test_invalid_syscall+0x6c>
        printf("✗ Invalid syscall handling FAILED\n");
    800003f2:	00006517          	auipc	a0,0x6
    800003f6:	fbe50513          	add	a0,a0,-66 # 800063b0 <userret+0x34c>
    800003fa:	00000097          	auipc	ra,0x0
    800003fe:	7ec080e7          	jalr	2028(ra) # 80000be6 <printf>
}
    80000402:	0001                	nop
    80000404:	60e2                	ld	ra,24(sp)
    80000406:	6442                	ld	s0,16(sp)
    80000408:	6105                	add	sp,sp,32
    8000040a:	8082                	ret

000000008000040c <test_write_edge_cases>:

void test_write_edge_cases(void) {
    8000040c:	7159                	add	sp,sp,-112
    8000040e:	f486                	sd	ra,104(sp)
    80000410:	f0a2                	sd	s0,96(sp)
    80000412:	1880                	add	s0,sp,112
    printf("\n=== Test 6: sys_write Edge Cases ===\n");
    80000414:	00006517          	auipc	a0,0x6
    80000418:	fc450513          	add	a0,a0,-60 # 800063d8 <userret+0x374>
    8000041c:	00000097          	auipc	ra,0x0
    80000420:	7ca080e7          	jalr	1994(ra) # 80000be6 <printf>
    
    char empty[] = "";
    80000424:	fe040023          	sb	zero,-32(s0)
    register uint64 a7 asm("a7") = SYS_write;
    80000428:	489d                	li	a7,7
    register uint64 a0 asm("a0") = 1;
    8000042a:	4505                	li	a0,1
    register uint64 a1 asm("a1") = (uint64)empty;
    8000042c:	fe040793          	add	a5,s0,-32
    80000430:	85be                	mv	a1,a5
    register uint64 a2 asm("a2") = 0;
    80000432:	4601                	li	a2,0
    asm volatile("ecall" : "+r"(a0) : "r"(a7), "r"(a1), "r"(a2));
    80000434:	00000073          	ecall
    int result1 = (int)a0;  // ⭐ 立即保存
    80000438:	87aa                	mv	a5,a0
    8000043a:	fef42623          	sw	a5,-20(s0)
    printf("Empty string write returned: %d\n", result1);
    8000043e:	fec42783          	lw	a5,-20(s0)
    80000442:	85be                	mv	a1,a5
    80000444:	00006517          	auipc	a0,0x6
    80000448:	fbc50513          	add	a0,a0,-68 # 80006400 <userret+0x39c>
    8000044c:	00000097          	auipc	ra,0x0
    80000450:	79a080e7          	jalr	1946(ra) # 80000be6 <printf>
    
    char single[] = "X";
    80000454:	05800793          	li	a5,88
    80000458:	fcf41c23          	sh	a5,-40(s0)
    a0 = 1;
    8000045c:	4505                	li	a0,1
    a1 = (uint64)single;
    8000045e:	fd840793          	add	a5,s0,-40
    80000462:	85be                	mv	a1,a5
    a2 = 1;
    80000464:	4605                	li	a2,1
    asm volatile("ecall" : "+r"(a0) : "r"(a7), "r"(a1), "r"(a2));
    80000466:	00000073          	ecall
    int result2 = (int)a0;  // ⭐ 立即保存
    8000046a:	87aa                	mv	a5,a0
    8000046c:	fef42423          	sw	a5,-24(s0)
    printf("\nSingle char write returned: %d\n", result2);
    80000470:	fe842783          	lw	a5,-24(s0)
    80000474:	85be                	mv	a1,a5
    80000476:	00006517          	auipc	a0,0x6
    8000047a:	fb250513          	add	a0,a0,-78 # 80006428 <userret+0x3c4>
    8000047e:	00000097          	auipc	ra,0x0
    80000482:	768080e7          	jalr	1896(ra) # 80000be6 <printf>
    
    char longstr[] = "This is a longer string to test the write system call functionality!\n";
    80000486:	00006797          	auipc	a5,0x6
    8000048a:	00a78793          	add	a5,a5,10 # 80006490 <userret+0x42c>
    8000048e:	0007be03          	ld	t3,0(a5)
    80000492:	0087b303          	ld	t1,8(a5)
    80000496:	0107b803          	ld	a6,16(a5)
    8000049a:	6f88                	ld	a0,24(a5)
    8000049c:	738c                	ld	a1,32(a5)
    8000049e:	7790                	ld	a2,40(a5)
    800004a0:	7b94                	ld	a3,48(a5)
    800004a2:	7f98                	ld	a4,56(a5)
    800004a4:	f9c43823          	sd	t3,-112(s0)
    800004a8:	f8643c23          	sd	t1,-104(s0)
    800004ac:	fb043023          	sd	a6,-96(s0)
    800004b0:	faa43423          	sd	a0,-88(s0)
    800004b4:	fab43823          	sd	a1,-80(s0)
    800004b8:	fac43c23          	sd	a2,-72(s0)
    800004bc:	fcd43023          	sd	a3,-64(s0)
    800004c0:	fce43423          	sd	a4,-56(s0)
    800004c4:	43b8                	lw	a4,64(a5)
    800004c6:	fce42823          	sw	a4,-48(s0)
    800004ca:	0447d783          	lhu	a5,68(a5)
    800004ce:	fcf41a23          	sh	a5,-44(s0)
    a0 = 1;
    800004d2:	4505                	li	a0,1
    a1 = (uint64)longstr;
    800004d4:	f9040793          	add	a5,s0,-112
    800004d8:	85be                	mv	a1,a5
    a2 = 70;
    800004da:	04600613          	li	a2,70
    asm volatile("ecall" : "+r"(a0) : "r"(a7), "r"(a1), "r"(a2));
    800004de:	00000073          	ecall
    int result3 = (int)a0;  // ⭐ 立即保存
    800004e2:	87aa                	mv	a5,a0
    800004e4:	fef42223          	sw	a5,-28(s0)
    printf("Long string write returned: %d\n", result3);
    800004e8:	fe442783          	lw	a5,-28(s0)
    800004ec:	85be                	mv	a1,a5
    800004ee:	00006517          	auipc	a0,0x6
    800004f2:	f6250513          	add	a0,a0,-158 # 80006450 <userret+0x3ec>
    800004f6:	00000097          	auipc	ra,0x0
    800004fa:	6f0080e7          	jalr	1776(ra) # 80000be6 <printf>
    
    printf("✓ Edge cases test PASSED\n");
    800004fe:	00006517          	auipc	a0,0x6
    80000502:	f7250513          	add	a0,a0,-142 # 80006470 <userret+0x40c>
    80000506:	00000097          	auipc	ra,0x0
    8000050a:	6e0080e7          	jalr	1760(ra) # 80000be6 <printf>
}
    8000050e:	0001                	nop
    80000510:	70a6                	ld	ra,104(sp)
    80000512:	7406                	ld	s0,96(sp)
    80000514:	6165                	add	sp,sp,112
    80000516:	8082                	ret

0000000080000518 <syscall_test_process>:

// ==================== 主测试进程 ====================
void syscall_test_process(void) {
    80000518:	1141                	add	sp,sp,-16
    8000051a:	e406                	sd	ra,8(sp)
    8000051c:	e022                	sd	s0,0(sp)
    8000051e:	0800                	add	s0,sp,16
    printf("\n");
    80000520:	00006517          	auipc	a0,0x6
    80000524:	fb850513          	add	a0,a0,-72 # 800064d8 <userret+0x474>
    80000528:	00000097          	auipc	ra,0x0
    8000052c:	6be080e7          	jalr	1726(ra) # 80000be6 <printf>
    printf("========================================\n");
    80000530:	00006517          	auipc	a0,0x6
    80000534:	fb050513          	add	a0,a0,-80 # 800064e0 <userret+0x47c>
    80000538:	00000097          	auipc	ra,0x0
    8000053c:	6ae080e7          	jalr	1710(ra) # 80000be6 <printf>
    printf("=== System Call Test Process Started ===\n");
    80000540:	00006517          	auipc	a0,0x6
    80000544:	fd050513          	add	a0,a0,-48 # 80006510 <userret+0x4ac>
    80000548:	00000097          	auipc	ra,0x0
    8000054c:	69e080e7          	jalr	1694(ra) # 80000be6 <printf>
    printf("========================================\n");
    80000550:	00006517          	auipc	a0,0x6
    80000554:	f9050513          	add	a0,a0,-112 # 800064e0 <userret+0x47c>
    80000558:	00000097          	auipc	ra,0x0
    8000055c:	68e080e7          	jalr	1678(ra) # 80000be6 <printf>
    printf("PID: %d\n", myproc()->pid);
    80000560:	00003097          	auipc	ra,0x3
    80000564:	478080e7          	jalr	1144(ra) # 800039d8 <myproc>
    80000568:	87aa                	mv	a5,a0
    8000056a:	439c                	lw	a5,0(a5)
    8000056c:	85be                	mv	a1,a5
    8000056e:	00006517          	auipc	a0,0x6
    80000572:	fd250513          	add	a0,a0,-46 # 80006540 <userret+0x4dc>
    80000576:	00000097          	auipc	ra,0x0
    8000057a:	670080e7          	jalr	1648(ra) # 80000be6 <printf>
    printf("Name: %s\n", myproc()->name);
    8000057e:	00003097          	auipc	ra,0x3
    80000582:	45a080e7          	jalr	1114(ra) # 800039d8 <myproc>
    80000586:	87aa                	mv	a5,a0
    80000588:	07a1                	add	a5,a5,8
    8000058a:	85be                	mv	a1,a5
    8000058c:	00006517          	auipc	a0,0x6
    80000590:	fc450513          	add	a0,a0,-60 # 80006550 <userret+0x4ec>
    80000594:	00000097          	auipc	ra,0x0
    80000598:	652080e7          	jalr	1618(ra) # 80000be6 <printf>
    printf("\n");
    8000059c:	00006517          	auipc	a0,0x6
    800005a0:	f3c50513          	add	a0,a0,-196 # 800064d8 <userret+0x474>
    800005a4:	00000097          	auipc	ra,0x0
    800005a8:	642080e7          	jalr	1602(ra) # 80000be6 <printf>
    
    test_getpid();
    800005ac:	00000097          	auipc	ra,0x0
    800005b0:	b7e080e7          	jalr	-1154(ra) # 8000012a <test_getpid>
    test_write();
    800005b4:	00000097          	auipc	ra,0x0
    800005b8:	c14080e7          	jalr	-1004(ra) # 800001c8 <test_write>
    test_multiple_syscalls();
    800005bc:	00000097          	auipc	ra,0x0
    800005c0:	ca4080e7          	jalr	-860(ra) # 80000260 <test_multiple_syscalls>
    test_syscall_parameters();
    800005c4:	00000097          	auipc	ra,0x0
    800005c8:	d18080e7          	jalr	-744(ra) # 800002dc <test_syscall_parameters>
    test_invalid_syscall();
    800005cc:	00000097          	auipc	ra,0x0
    800005d0:	dca080e7          	jalr	-566(ra) # 80000396 <test_invalid_syscall>
    test_write_edge_cases();
    800005d4:	00000097          	auipc	ra,0x0
    800005d8:	e38080e7          	jalr	-456(ra) # 8000040c <test_write_edge_cases>
    
    printf("\n");
    800005dc:	00006517          	auipc	a0,0x6
    800005e0:	efc50513          	add	a0,a0,-260 # 800064d8 <userret+0x474>
    800005e4:	00000097          	auipc	ra,0x0
    800005e8:	602080e7          	jalr	1538(ra) # 80000be6 <printf>
    printf("========================================\n");
    800005ec:	00006517          	auipc	a0,0x6
    800005f0:	ef450513          	add	a0,a0,-268 # 800064e0 <userret+0x47c>
    800005f4:	00000097          	auipc	ra,0x0
    800005f8:	5f2080e7          	jalr	1522(ra) # 80000be6 <printf>
    printf("=== All System Call Tests Completed ===\n");
    800005fc:	00006517          	auipc	a0,0x6
    80000600:	f6450513          	add	a0,a0,-156 # 80006560 <userret+0x4fc>
    80000604:	00000097          	auipc	ra,0x0
    80000608:	5e2080e7          	jalr	1506(ra) # 80000be6 <printf>
    printf("========================================\n");
    8000060c:	00006517          	auipc	a0,0x6
    80000610:	ed450513          	add	a0,a0,-300 # 800064e0 <userret+0x47c>
    80000614:	00000097          	auipc	ra,0x0
    80000618:	5d2080e7          	jalr	1490(ra) # 80000be6 <printf>
    printf("\n");
    8000061c:	00006517          	auipc	a0,0x6
    80000620:	ebc50513          	add	a0,a0,-324 # 800064d8 <userret+0x474>
    80000624:	00000097          	auipc	ra,0x0
    80000628:	5c2080e7          	jalr	1474(ra) # 80000be6 <printf>
    
    // ⭐ 修复：测试完成后退出进程
    printf("Process exiting...\n");
    8000062c:	00006517          	auipc	a0,0x6
    80000630:	f6450513          	add	a0,a0,-156 # 80006590 <userret+0x52c>
    80000634:	00000097          	auipc	ra,0x0
    80000638:	5b2080e7          	jalr	1458(ra) # 80000be6 <printf>
    exit_proc(0);
    8000063c:	4501                	li	a0,0
    8000063e:	00004097          	auipc	ra,0x4
    80000642:	bb2080e7          	jalr	-1102(ra) # 800041f0 <exit_proc>
    
    // 不会执行到这里
    for(;;);
    80000646:	0001                	nop
    80000648:	bffd                	j	80000646 <syscall_test_process+0x12e>

000000008000064a <main>:
}

// ==================== 系统主函数 ====================
void main(void) {
    8000064a:	7179                	add	sp,sp,-48
    8000064c:	f406                	sd	ra,40(sp)
    8000064e:	f022                	sd	s0,32(sp)
    80000650:	1800                	add	s0,sp,48
    printf("\n");
    80000652:	00006517          	auipc	a0,0x6
    80000656:	e8650513          	add	a0,a0,-378 # 800064d8 <userret+0x474>
    8000065a:	00000097          	auipc	ra,0x0
    8000065e:	58c080e7          	jalr	1420(ra) # 80000be6 <printf>
    printf("========================================\n");
    80000662:	00006517          	auipc	a0,0x6
    80000666:	e7e50513          	add	a0,a0,-386 # 800064e0 <userret+0x47c>
    8000066a:	00000097          	auipc	ra,0x0
    8000066e:	57c080e7          	jalr	1404(ra) # 80000be6 <printf>
    printf("=== RISC-V OS Lab 6: System Calls ===\n");
    80000672:	00006517          	auipc	a0,0x6
    80000676:	f3650513          	add	a0,a0,-202 # 800065a8 <userret+0x544>
    8000067a:	00000097          	auipc	ra,0x0
    8000067e:	56c080e7          	jalr	1388(ra) # 80000be6 <printf>
    printf("========================================\n");
    80000682:	00006517          	auipc	a0,0x6
    80000686:	e5e50513          	add	a0,a0,-418 # 800064e0 <userret+0x47c>
    8000068a:	00000097          	auipc	ra,0x0
    8000068e:	55c080e7          	jalr	1372(ra) # 80000be6 <printf>
    
    printf("\nSystem Information:\n");
    80000692:	00006517          	auipc	a0,0x6
    80000696:	f3e50513          	add	a0,a0,-194 # 800065d0 <userret+0x56c>
    8000069a:	00000097          	auipc	ra,0x0
    8000069e:	54c080e7          	jalr	1356(ra) # 80000be6 <printf>
    printf("  Hart ID:  %d\n", (int)r_tp());
    800006a2:	8792                	mv	a5,tp
    800006a4:	fef43423          	sd	a5,-24(s0)
    800006a8:	fe843783          	ld	a5,-24(s0)
    800006ac:	2781                	sext.w	a5,a5
    800006ae:	85be                	mv	a1,a5
    800006b0:	00006517          	auipc	a0,0x6
    800006b4:	f3850513          	add	a0,a0,-200 # 800065e8 <userret+0x584>
    800006b8:	00000097          	auipc	ra,0x0
    800006bc:	52e080e7          	jalr	1326(ra) # 80000be6 <printf>
    printf("  KERNBASE: %p\n", (void*)0x80000000L);
    800006c0:	4785                	li	a5,1
    800006c2:	01f79593          	sll	a1,a5,0x1f
    800006c6:	00006517          	auipc	a0,0x6
    800006ca:	f3250513          	add	a0,a0,-206 # 800065f8 <userret+0x594>
    800006ce:	00000097          	auipc	ra,0x0
    800006d2:	518080e7          	jalr	1304(ra) # 80000be6 <printf>
    printf("  PHYSTOP:  %p\n", (void*)0x88000000L);
    800006d6:	47c5                	li	a5,17
    800006d8:	01b79593          	sll	a1,a5,0x1b
    800006dc:	00006517          	auipc	a0,0x6
    800006e0:	f2c50513          	add	a0,a0,-212 # 80006608 <userret+0x5a4>
    800006e4:	00000097          	auipc	ra,0x0
    800006e8:	502080e7          	jalr	1282(ra) # 80000be6 <printf>
    
    printf("\nKernel symbols:\n");
    800006ec:	00006517          	auipc	a0,0x6
    800006f0:	f2c50513          	add	a0,a0,-212 # 80006618 <userret+0x5b4>
    800006f4:	00000097          	auipc	ra,0x0
    800006f8:	4f2080e7          	jalr	1266(ra) # 80000be6 <printf>
    printf("  etext: %p\n", etext);
    800006fc:	00006597          	auipc	a1,0x6
    80000700:	90458593          	add	a1,a1,-1788 # 80006000 <etext>
    80000704:	00006517          	auipc	a0,0x6
    80000708:	f2c50513          	add	a0,a0,-212 # 80006630 <userret+0x5cc>
    8000070c:	00000097          	auipc	ra,0x0
    80000710:	4da080e7          	jalr	1242(ra) # 80000be6 <printf>
    printf("  edata: %p\n", edata);
    80000714:	0000a597          	auipc	a1,0xa
    80000718:	8ec58593          	add	a1,a1,-1812 # 8000a000 <panicking>
    8000071c:	00006517          	auipc	a0,0x6
    80000720:	f2450513          	add	a0,a0,-220 # 80006640 <userret+0x5dc>
    80000724:	00000097          	auipc	ra,0x0
    80000728:	4c2080e7          	jalr	1218(ra) # 80000be6 <printf>
    printf("  end:   %p\n", end);
    8000072c:	00012597          	auipc	a1,0x12
    80000730:	8d458593          	add	a1,a1,-1836 # 80012000 <end>
    80000734:	00006517          	auipc	a0,0x6
    80000738:	f1c50513          	add	a0,a0,-228 # 80006650 <userret+0x5ec>
    8000073c:	00000097          	auipc	ra,0x0
    80000740:	4aa080e7          	jalr	1194(ra) # 80000be6 <printf>
    
    printf("\n=== Phase 1: Physical Memory Management ===\n");
    80000744:	00006517          	auipc	a0,0x6
    80000748:	f1c50513          	add	a0,a0,-228 # 80006660 <userret+0x5fc>
    8000074c:	00000097          	auipc	ra,0x0
    80000750:	49a080e7          	jalr	1178(ra) # 80000be6 <printf>
    pmm_init();
    80000754:	00001097          	auipc	ra,0x1
    80000758:	a88080e7          	jalr	-1400(ra) # 800011dc <pmm_init>
    pmm_info();
    8000075c:	00001097          	auipc	ra,0x1
    80000760:	cde080e7          	jalr	-802(ra) # 8000143a <pmm_info>
    
    printf("\n=== Phase 2: Virtual Memory Activation ===\n");
    80000764:	00006517          	auipc	a0,0x6
    80000768:	f2c50513          	add	a0,a0,-212 # 80006690 <userret+0x62c>
    8000076c:	00000097          	auipc	ra,0x0
    80000770:	47a080e7          	jalr	1146(ra) # 80000be6 <printf>
    printf("Current satp: %p\n", (void*)r_satp());
    80000774:	180027f3          	csrr	a5,satp
    80000778:	fef43023          	sd	a5,-32(s0)
    8000077c:	fe043783          	ld	a5,-32(s0)
    80000780:	85be                	mv	a1,a5
    80000782:	00006517          	auipc	a0,0x6
    80000786:	f3e50513          	add	a0,a0,-194 # 800066c0 <userret+0x65c>
    8000078a:	00000097          	auipc	ra,0x0
    8000078e:	45c080e7          	jalr	1116(ra) # 80000be6 <printf>
    kvminit();
    80000792:	00001097          	auipc	ra,0x1
    80000796:	18a080e7          	jalr	394(ra) # 8000191c <kvminit>
    kvminithart();
    8000079a:	00001097          	auipc	ra,0x1
    8000079e:	354080e7          	jalr	852(ra) # 80001aee <kvminithart>
    printf("Virtual memory enabled! New satp: %p\n", (void*)r_satp());
    800007a2:	180027f3          	csrr	a5,satp
    800007a6:	fcf43c23          	sd	a5,-40(s0)
    800007aa:	fd843783          	ld	a5,-40(s0)
    800007ae:	85be                	mv	a1,a5
    800007b0:	00006517          	auipc	a0,0x6
    800007b4:	f2850513          	add	a0,a0,-216 # 800066d8 <userret+0x674>
    800007b8:	00000097          	auipc	ra,0x0
    800007bc:	42e080e7          	jalr	1070(ra) # 80000be6 <printf>
    
    printf("\n=== Phase 3: Interrupt System ===\n");
    800007c0:	00006517          	auipc	a0,0x6
    800007c4:	f4050513          	add	a0,a0,-192 # 80006700 <userret+0x69c>
    800007c8:	00000097          	auipc	ra,0x0
    800007cc:	41e080e7          	jalr	1054(ra) # 80000be6 <printf>
    trap_init();
    800007d0:	00002097          	auipc	ra,0x2
    800007d4:	ca2080e7          	jalr	-862(ra) # 80002472 <trap_init>
    
    printf("\n=== Phase 4: Timer System ===\n");
    800007d8:	00006517          	auipc	a0,0x6
    800007dc:	f5050513          	add	a0,a0,-176 # 80006728 <userret+0x6c4>
    800007e0:	00000097          	auipc	ra,0x0
    800007e4:	406080e7          	jalr	1030(ra) # 80000be6 <printf>
    timer_init();
    800007e8:	00003097          	auipc	ra,0x3
    800007ec:	00a080e7          	jalr	10(ra) # 800037f2 <timer_init>
    
    printf("\n=== Phase 5: Process System ===\n");
    800007f0:	00006517          	auipc	a0,0x6
    800007f4:	f5850513          	add	a0,a0,-168 # 80006748 <userret+0x6e4>
    800007f8:	00000097          	auipc	ra,0x0
    800007fc:	3ee080e7          	jalr	1006(ra) # 80000be6 <printf>
    procinit();
    80000800:	00003097          	auipc	ra,0x3
    80000804:	0f6080e7          	jalr	246(ra) # 800038f6 <procinit>
    
    // ==================== Phase 6: 创建用户进程 ====================
    printf("\n=== Phase 6: Creating First User Process ===\n");
    80000808:	00006517          	auipc	a0,0x6
    8000080c:	f6850513          	add	a0,a0,-152 # 80006770 <userret+0x70c>
    80000810:	00000097          	auipc	ra,0x0
    80000814:	3d6080e7          	jalr	982(ra) # 80000be6 <printf>

    int init_pid = userinit();  // ← 改用 userinit
    80000818:	00004097          	auipc	ra,0x4
    8000081c:	b48080e7          	jalr	-1208(ra) # 80004360 <userinit>
    80000820:	87aa                	mv	a5,a0
    80000822:	fcf42a23          	sw	a5,-44(s0)
    if(init_pid < 0) {
    80000826:	fd442783          	lw	a5,-44(s0)
    8000082a:	2781                	sext.w	a5,a5
    8000082c:	0007da63          	bgez	a5,80000840 <main+0x1f6>
        panic("failed to create init process");
    80000830:	00006517          	auipc	a0,0x6
    80000834:	f7050513          	add	a0,a0,-144 # 800067a0 <userret+0x73c>
    80000838:	00000097          	auipc	ra,0x0
    8000083c:	754080e7          	jalr	1876(ra) # 80000f8c <panic>
    }

    printf("First user process created with PID %d\n", init_pid);
    80000840:	fd442783          	lw	a5,-44(s0)
    80000844:	85be                	mv	a1,a5
    80000846:	00006517          	auipc	a0,0x6
    8000084a:	f7a50513          	add	a0,a0,-134 # 800067c0 <userret+0x75c>
    8000084e:	00000097          	auipc	ra,0x0
    80000852:	398080e7          	jalr	920(ra) # 80000be6 <printf>
    printf("This process runs in U-mode (user mode)!\n");
    80000856:	00006517          	auipc	a0,0x6
    8000085a:	f9250513          	add	a0,a0,-110 # 800067e8 <userret+0x784>
    8000085e:	00000097          	auipc	ra,0x0
    80000862:	388080e7          	jalr	904(ra) # 80000be6 <printf>
    printf("\n=== System Ready ===\n");
    80000866:	00006517          	auipc	a0,0x6
    8000086a:	fb250513          	add	a0,a0,-78 # 80006818 <userret+0x7b4>
    8000086e:	00000097          	auipc	ra,0x0
    80000872:	378080e7          	jalr	888(ra) # 80000be6 <printf>
    printf("All subsystems initialized successfully!\n");
    80000876:	00006517          	auipc	a0,0x6
    8000087a:	fba50513          	add	a0,a0,-70 # 80006830 <userret+0x7cc>
    8000087e:	00000097          	auipc	ra,0x0
    80000882:	368080e7          	jalr	872(ra) # 80000be6 <printf>
    printf("- Physical memory manager\n");
    80000886:	00006517          	auipc	a0,0x6
    8000088a:	fda50513          	add	a0,a0,-38 # 80006860 <userret+0x7fc>
    8000088e:	00000097          	auipc	ra,0x0
    80000892:	358080e7          	jalr	856(ra) # 80000be6 <printf>
    printf("- Virtual memory (Sv39)\n");
    80000896:	00006517          	auipc	a0,0x6
    8000089a:	fea50513          	add	a0,a0,-22 # 80006880 <userret+0x81c>
    8000089e:	00000097          	auipc	ra,0x0
    800008a2:	348080e7          	jalr	840(ra) # 80000be6 <printf>
    printf("- Interrupt handling\n");
    800008a6:	00006517          	auipc	a0,0x6
    800008aa:	ffa50513          	add	a0,a0,-6 # 800068a0 <userret+0x83c>
    800008ae:	00000097          	auipc	ra,0x0
    800008b2:	338080e7          	jalr	824(ra) # 80000be6 <printf>
    printf("- Timer interrupts (100ms)\n");
    800008b6:	00006517          	auipc	a0,0x6
    800008ba:	00250513          	add	a0,a0,2 # 800068b8 <userret+0x854>
    800008be:	00000097          	auipc	ra,0x0
    800008c2:	328080e7          	jalr	808(ra) # 80000be6 <printf>
    printf("- Process management\n");
    800008c6:	00006517          	auipc	a0,0x6
    800008ca:	01250513          	add	a0,a0,18 # 800068d8 <userret+0x874>
    800008ce:	00000097          	auipc	ra,0x0
    800008d2:	318080e7          	jalr	792(ra) # 80000be6 <printf>
    printf("- System call interface\n");
    800008d6:	00006517          	auipc	a0,0x6
    800008da:	01a50513          	add	a0,a0,26 # 800068f0 <userret+0x88c>
    800008de:	00000097          	auipc	ra,0x0
    800008e2:	308080e7          	jalr	776(ra) # 80000be6 <printf>
    
    printf("\n========================================\n");
    800008e6:	00006517          	auipc	a0,0x6
    800008ea:	02a50513          	add	a0,a0,42 # 80006910 <userret+0x8ac>
    800008ee:	00000097          	auipc	ra,0x0
    800008f2:	2f8080e7          	jalr	760(ra) # 80000be6 <printf>
    printf("Starting scheduler...\n");
    800008f6:	00006517          	auipc	a0,0x6
    800008fa:	04a50513          	add	a0,a0,74 # 80006940 <userret+0x8dc>
    800008fe:	00000097          	auipc	ra,0x0
    80000902:	2e8080e7          	jalr	744(ra) # 80000be6 <printf>
    printf("The system will now run the test process.\n");
    80000906:	00006517          	auipc	a0,0x6
    8000090a:	05250513          	add	a0,a0,82 # 80006958 <userret+0x8f4>
    8000090e:	00000097          	auipc	ra,0x0
    80000912:	2d8080e7          	jalr	728(ra) # 80000be6 <printf>
    printf("========================================\n\n");
    80000916:	00006517          	auipc	a0,0x6
    8000091a:	07250513          	add	a0,a0,114 # 80006988 <userret+0x924>
    8000091e:	00000097          	auipc	ra,0x0
    80000922:	2c8080e7          	jalr	712(ra) # 80000be6 <printf>
    
    scheduler();
    80000926:	00003097          	auipc	ra,0x3
    8000092a:	54a080e7          	jalr	1354(ra) # 80003e70 <scheduler>

000000008000092e <uartinit>:
/* 外部变量声明 */
extern volatile int panicking;
extern volatile int panicked;

void uartinit(void)
{
    8000092e:	1141                	add	sp,sp,-16
    80000930:	e422                	sd	s0,8(sp)
    80000932:	0800                	add	s0,sp,16
  // 1. 禁用所有中断（简化设计，使用轮询模式）
  WriteReg(IER, 0x00);
    80000934:	100007b7          	lui	a5,0x10000
    80000938:	0785                	add	a5,a5,1 # 10000001 <_entry-0x6fffffff>
    8000093a:	00078023          	sb	zero,0(a5)
   // 2. 设置波特率为38400
  WriteReg(LCR, LCR_BAUD_LATCH);// 进入波特率设置模式
    8000093e:	100007b7          	lui	a5,0x10000
    80000942:	078d                	add	a5,a5,3 # 10000003 <_entry-0x6ffffffd>
    80000944:	f8000713          	li	a4,-128
    80000948:	00e78023          	sb	a4,0(a5)
  WriteReg(0, 0x03);// 低字节
    8000094c:	100007b7          	lui	a5,0x10000
    80000950:	470d                	li	a4,3
    80000952:	00e78023          	sb	a4,0(a5) # 10000000 <_entry-0x70000000>
  WriteReg(1, 0x00);// 高字节
    80000956:	100007b7          	lui	a5,0x10000
    8000095a:	0785                	add	a5,a5,1 # 10000001 <_entry-0x6fffffff>
    8000095c:	00078023          	sb	zero,0(a5)
  // 3. 配置数据格式：8位数据，无校验位
  WriteReg(LCR, LCR_EIGHT_BITS);
    80000960:	100007b7          	lui	a5,0x10000
    80000964:	078d                	add	a5,a5,3 # 10000003 <_entry-0x6ffffffd>
    80000966:	470d                	li	a4,3
    80000968:	00e78023          	sb	a4,0(a5)
  // 4. 启用并清空FIFO缓冲区
  WriteReg(FCR, FCR_FIFO_ENABLE | FCR_FIFO_CLEAR);
    8000096c:	100007b7          	lui	a5,0x10000
    80000970:	0789                	add	a5,a5,2 # 10000002 <_entry-0x6ffffffe>
    80000972:	471d                	li	a4,7
    80000974:	00e78023          	sb	a4,0(a5)
}
    80000978:	0001                	nop
    8000097a:	6422                	ld	s0,8(sp)
    8000097c:	0141                	add	sp,sp,16
    8000097e:	8082                	ret

0000000080000980 <uartputc_sync>:

/* 同步字符输出 */
void uartputc_sync(int c)
{// 1. 检查系统是否panic
    80000980:	1101                	add	sp,sp,-32
    80000982:	ec22                	sd	s0,24(sp)
    80000984:	1000                	add	s0,sp,32
    80000986:	87aa                	mv	a5,a0
    80000988:	fef42623          	sw	a5,-20(s0)
  if(panicked){
    8000098c:	00009797          	auipc	a5,0x9
    80000990:	67878793          	add	a5,a5,1656 # 8000a004 <panicked>
    80000994:	439c                	lw	a5,0(a5)
    80000996:	2781                	sext.w	a5,a5
    80000998:	c399                	beqz	a5,8000099e <uartputc_sync+0x1e>
    for(;;)// 如果系统崩溃，停止输出
    8000099a:	0001                	nop
    8000099c:	bffd                	j	8000099a <uartputc_sync+0x1a>
      ;
  }
 // 2. 等待发送寄存器空闲
 // 忙等待 - 轮询LSR寄存器的TX_IDLE位
// 这确保上一个字符发送完成后再发送新字符
  while((ReadReg(LSR) & LSR_TX_IDLE) == 0)
    8000099e:	0001                	nop
    800009a0:	100007b7          	lui	a5,0x10000
    800009a4:	0795                	add	a5,a5,5 # 10000005 <_entry-0x6ffffffb>
    800009a6:	0007c783          	lbu	a5,0(a5)
    800009aa:	0ff7f793          	zext.b	a5,a5
    800009ae:	2781                	sext.w	a5,a5
    800009b0:	0207f793          	and	a5,a5,32
    800009b4:	2781                	sext.w	a5,a5
    800009b6:	d7ed                	beqz	a5,800009a0 <uartputc_sync+0x20>
    ;
  // 3. 将字符写入发送寄存器
  WriteReg(THR, c);
    800009b8:	100007b7          	lui	a5,0x10000
    800009bc:	fec42703          	lw	a4,-20(s0)
    800009c0:	0ff77713          	zext.b	a4,a4
    800009c4:	00e78023          	sb	a4,0(a5) # 10000000 <_entry-0x70000000>
  // 硬件会自动开始发送这个字符
}
    800009c8:	0001                	nop
    800009ca:	6462                	ld	s0,24(sp)
    800009cc:	6105                	add	sp,sp,32
    800009ce:	8082                	ret

00000000800009d0 <uartgetc>:

int uartgetc(void)
{
    800009d0:	1141                	add	sp,sp,-16
    800009d2:	e422                	sd	s0,8(sp)
    800009d4:	0800                	add	s0,sp,16
  // 第1步：检查串口是否有数据可读
  // LSR_RX_READY 位表示"接收缓冲区有数据"
  if(ReadReg(LSR) & LSR_RX_READY) {
    800009d6:	100007b7          	lui	a5,0x10000
    800009da:	0795                	add	a5,a5,5 # 10000005 <_entry-0x6ffffffb>
    800009dc:	0007c783          	lbu	a5,0(a5)
    800009e0:	0ff7f793          	zext.b	a5,a5
    800009e4:	2781                	sext.w	a5,a5
    800009e6:	8b85                	and	a5,a5,1
    800009e8:	2781                	sext.w	a5,a5
    800009ea:	cb89                	beqz	a5,800009fc <uartgetc+0x2c>
    
    // 第2步：如果有数据，从接收寄存器读取一个字符
    // RHR = Receive Holding Register (接收保持寄存器)
    return ReadReg(RHR);
    800009ec:	100007b7          	lui	a5,0x10000
    800009f0:	0007c783          	lbu	a5,0(a5) # 10000000 <_entry-0x70000000>
    800009f4:	0ff7f793          	zext.b	a5,a5
    800009f8:	2781                	sext.w	a5,a5
    800009fa:	a011                	j	800009fe <uartgetc+0x2e>
    
  } else {
    
    // 第3步：如果没有数据，返回-1表示"没有数据"
    return -1;
    800009fc:	57fd                	li	a5,-1
  }
}
    800009fe:	853e                	mv	a0,a5
    80000a00:	6422                	ld	s0,8(sp)
    80000a02:	0141                	add	sp,sp,16
    80000a04:	8082                	ret

0000000080000a06 <consputc>:
// consputc()是一个适配器：
// - 上层(printf)期望简单的字符输出接口
// - 下层(uart)提供硬件特定的接口
// - console层负责适配和转换
void consputc(int c)
{
    80000a06:	1101                	add	sp,sp,-32
    80000a08:	ec06                	sd	ra,24(sp)
    80000a0a:	e822                	sd	s0,16(sp)
    80000a0c:	1000                	add	s0,sp,32
    80000a0e:	87aa                	mv	a5,a0
    80000a10:	fef42623          	sw	a5,-20(s0)
  if(c == BACKSPACE){
    80000a14:	fec42783          	lw	a5,-20(s0)
    80000a18:	0007871b          	sext.w	a4,a5
    80000a1c:	10000793          	li	a5,256
    80000a20:	02f71363          	bne	a4,a5,80000a46 <consputc+0x40>
    // 退格处理：输出 退格-空格-退格 序列
     uartputc_sync('\b');   // 光标后退一位
    80000a24:	4521                	li	a0,8
    80000a26:	00000097          	auipc	ra,0x0
    80000a2a:	f5a080e7          	jalr	-166(ra) # 80000980 <uartputc_sync>
     uartputc_sync(' ');    // 用空格覆盖字符  
    80000a2e:	02000513          	li	a0,32
    80000a32:	00000097          	auipc	ra,0x0
    80000a36:	f4e080e7          	jalr	-178(ra) # 80000980 <uartputc_sync>
     uartputc_sync('\b');   // 光标再后退一位
    80000a3a:	4521                	li	a0,8
    80000a3c:	00000097          	auipc	ra,0x0
    80000a40:	f44080e7          	jalr	-188(ra) # 80000980 <uartputc_sync>
  } else {
    // 普通字符直接传递给硬件层
    uartputc_sync(c);
  }
}
    80000a44:	a801                	j	80000a54 <consputc+0x4e>
    uartputc_sync(c);
    80000a46:	fec42783          	lw	a5,-20(s0)
    80000a4a:	853e                	mv	a0,a5
    80000a4c:	00000097          	auipc	ra,0x0
    80000a50:	f34080e7          	jalr	-204(ra) # 80000980 <uartputc_sync>
}
    80000a54:	0001                	nop
    80000a56:	60e2                	ld	ra,24(sp)
    80000a58:	6442                	ld	s0,16(sp)
    80000a5a:	6105                	add	sp,sp,32
    80000a5c:	8082                	ret

0000000080000a5e <consoleinit>:
/* 初始化函数 */
void consoleinit(void)
{
    80000a5e:	1141                	add	sp,sp,-16
    80000a60:	e406                	sd	ra,8(sp)
    80000a62:	e022                	sd	s0,0(sp)
    80000a64:	0800                	add	s0,sp,16
  uartinit();// 先初始化硬件层
    80000a66:	00000097          	auipc	ra,0x0
    80000a6a:	ec8080e7          	jalr	-312(ra) # 8000092e <uartinit>
  printfinit();    // 再初始化printf系统， printf系统依赖硬件工作
    80000a6e:	00000097          	auipc	ra,0x0
    80000a72:	56a080e7          	jalr	1386(ra) # 80000fd8 <printfinit>
}
    80000a76:	0001                	nop
    80000a78:	60a2                	ld	ra,8(sp)
    80000a7a:	6402                	ld	s0,0(sp)
    80000a7c:	0141                	add	sp,sp,16
    80000a7e:	8082                	ret

0000000080000a80 <printint>:
volatile int panicked = 0;// 系统是否已经panic完成，崩溃处理完成

static char digits[] = "0123456789abcdef";// 数字字符映射表

static void printint(long long xx, int base, int sign)
{
    80000a80:	715d                	add	sp,sp,-80
    80000a82:	e486                	sd	ra,72(sp)
    80000a84:	e0a2                	sd	s0,64(sp)
    80000a86:	0880                	add	s0,sp,80
    80000a88:	faa43c23          	sd	a0,-72(s0)
    80000a8c:	87ae                	mv	a5,a1
    80000a8e:	8732                	mv	a4,a2
    80000a90:	faf42a23          	sw	a5,-76(s0)
    80000a94:	87ba                	mv	a5,a4
    80000a96:	faf42823          	sw	a5,-80(s0)
  unsigned long long x;       // 无符号版本的数字
// 关键：x是unsigned类型！
// -(-2147483648) 在unsigned中是安全的

  // 处理负数
  if(sign && (sign = (xx < 0)))
    80000a9a:	fb042783          	lw	a5,-80(s0)
    80000a9e:	2781                	sext.w	a5,a5
    80000aa0:	c39d                	beqz	a5,80000ac6 <printint+0x46>
    80000aa2:	fb843783          	ld	a5,-72(s0)
    80000aa6:	93fd                	srl	a5,a5,0x3f
    80000aa8:	0ff7f793          	zext.b	a5,a5
    80000aac:	faf42823          	sw	a5,-80(s0)
    80000ab0:	fb042783          	lw	a5,-80(s0)
    80000ab4:	2781                	sext.w	a5,a5
    80000ab6:	cb81                	beqz	a5,80000ac6 <printint+0x46>
    x = -xx; // 转为正数处理
    80000ab8:	fb843783          	ld	a5,-72(s0)
    80000abc:	40f007b3          	neg	a5,a5
    80000ac0:	fef43023          	sd	a5,-32(s0)
    80000ac4:	a029                	j	80000ace <printint+0x4e>
  else
    x = xx;
    80000ac6:	fb843783          	ld	a5,-72(s0)
    80000aca:	fef43023          	sd	a5,-32(s0)

//  多位数：提取每一位数字
  i = 0;
    80000ace:	fe042623          	sw	zero,-20(s0)
  do {
    buf[i++] = digits[x % base]; // 取余数，得到最低位
    80000ad2:	fb442783          	lw	a5,-76(s0)
    80000ad6:	fe043703          	ld	a4,-32(s0)
    80000ada:	02f77733          	remu	a4,a4,a5
    80000ade:	fec42783          	lw	a5,-20(s0)
    80000ae2:	0017869b          	addw	a3,a5,1
    80000ae6:	fed42623          	sw	a3,-20(s0)
    80000aea:	00008697          	auipc	a3,0x8
    80000aee:	52668693          	add	a3,a3,1318 # 80009010 <digits>
    80000af2:	9736                	add	a4,a4,a3
    80000af4:	00074703          	lbu	a4,0(a4)
    80000af8:	17c1                	add	a5,a5,-16
    80000afa:	97a2                	add	a5,a5,s0
    80000afc:	fce78c23          	sb	a4,-40(a5)
        // 关键：使用digits数组将数字映射为字符
        // 例如：x=42, base=10
        // 第一次：42 % 10 = 2 → buf[0] = '2'
        // 第二次：4 % 10 = 4 → buf[1] = '4' 
  } while((x /= base) != 0);// 整除，处理下一位
    80000b00:	fb442783          	lw	a5,-76(s0)
    80000b04:	fe043703          	ld	a4,-32(s0)
    80000b08:	02f757b3          	divu	a5,a4,a5
    80000b0c:	fef43023          	sd	a5,-32(s0)
    80000b10:	fe043783          	ld	a5,-32(s0)
    80000b14:	ffdd                	bnez	a5,80000ad2 <printint+0x52>
// 用do while而不是while,确保x=0时也能输出'0'
// 添加负号

  if(sign)
    80000b16:	fb042783          	lw	a5,-80(s0)
    80000b1a:	2781                	sext.w	a5,a5
    80000b1c:	cb95                	beqz	a5,80000b50 <printint+0xd0>
    buf[i++] = '-';
    80000b1e:	fec42783          	lw	a5,-20(s0)
    80000b22:	0017871b          	addw	a4,a5,1
    80000b26:	fee42623          	sw	a4,-20(s0)
    80000b2a:	17c1                	add	a5,a5,-16
    80000b2c:	97a2                	add	a5,a5,s0
    80000b2e:	02d00713          	li	a4,45
    80000b32:	fce78c23          	sb	a4,-40(a5)
// 逆序输出（因为是从低位到高位提取的）
  while(--i >= 0)
    80000b36:	a829                	j	80000b50 <printint+0xd0>
    consputc(buf[i]);
    80000b38:	fec42783          	lw	a5,-20(s0)
    80000b3c:	17c1                	add	a5,a5,-16
    80000b3e:	97a2                	add	a5,a5,s0
    80000b40:	fd87c783          	lbu	a5,-40(a5)
    80000b44:	2781                	sext.w	a5,a5
    80000b46:	853e                	mv	a0,a5
    80000b48:	00000097          	auipc	ra,0x0
    80000b4c:	ebe080e7          	jalr	-322(ra) # 80000a06 <consputc>
  while(--i >= 0)
    80000b50:	fec42783          	lw	a5,-20(s0)
    80000b54:	37fd                	addw	a5,a5,-1
    80000b56:	fef42623          	sw	a5,-20(s0)
    80000b5a:	fec42783          	lw	a5,-20(s0)
    80000b5e:	2781                	sext.w	a5,a5
    80000b60:	fc07dce3          	bgez	a5,80000b38 <printint+0xb8>
}
    80000b64:	0001                	nop
    80000b66:	0001                	nop
    80000b68:	60a6                	ld	ra,72(sp)
    80000b6a:	6406                	ld	s0,64(sp)
    80000b6c:	6161                	add	sp,sp,80
    80000b6e:	8082                	ret

0000000080000b70 <printptr>:




static void printptr(uint64 x)
{
    80000b70:	7179                	add	sp,sp,-48
    80000b72:	f406                	sd	ra,40(sp)
    80000b74:	f022                	sd	s0,32(sp)
    80000b76:	1800                	add	s0,sp,48
    80000b78:	fca43c23          	sd	a0,-40(s0)
  int i;
  
  // 第1步：先输出"0x"前缀，表示这是十六进制地址
  consputc('0');
    80000b7c:	03000513          	li	a0,48
    80000b80:	00000097          	auipc	ra,0x0
    80000b84:	e86080e7          	jalr	-378(ra) # 80000a06 <consputc>
  consputc('x');
    80000b88:	07800513          	li	a0,120
    80000b8c:	00000097          	auipc	ra,0x0
    80000b90:	e7a080e7          	jalr	-390(ra) # 80000a06 <consputc>
  
  // 第2步：循环输出地址的每一位十六进制数字
  // sizeof(uint64) * 2 = 8 * 2 = 16位十六进制数字
  // 64位地址需要16个十六进制字符来表示
  for (i = 0; i < (sizeof(uint64) * 2); i++, x <<= 4) {
    80000b94:	fe042623          	sw	zero,-20(s0)
    80000b98:	a81d                	j	80000bce <printptr+0x5e>
    // 每次取出最高4位来输出
    // x >> (sizeof(uint64) * 8 - 4) 就是 x >> 60
    // 这样每次都取最高的4位（一个十六进制数字）
    consputc(digits[x >> (sizeof(uint64) * 8 - 4)]);
    80000b9a:	fd843783          	ld	a5,-40(s0)
    80000b9e:	93f1                	srl	a5,a5,0x3c
    80000ba0:	00008717          	auipc	a4,0x8
    80000ba4:	47070713          	add	a4,a4,1136 # 80009010 <digits>
    80000ba8:	97ba                	add	a5,a5,a4
    80000baa:	0007c783          	lbu	a5,0(a5)
    80000bae:	2781                	sext.w	a5,a5
    80000bb0:	853e                	mv	a0,a5
    80000bb2:	00000097          	auipc	ra,0x0
    80000bb6:	e54080e7          	jalr	-428(ra) # 80000a06 <consputc>
  for (i = 0; i < (sizeof(uint64) * 2); i++, x <<= 4) {
    80000bba:	fec42783          	lw	a5,-20(s0)
    80000bbe:	2785                	addw	a5,a5,1
    80000bc0:	fef42623          	sw	a5,-20(s0)
    80000bc4:	fd843783          	ld	a5,-40(s0)
    80000bc8:	0792                	sll	a5,a5,0x4
    80000bca:	fcf43c23          	sd	a5,-40(s0)
    80000bce:	fec42783          	lw	a5,-20(s0)
    80000bd2:	873e                	mv	a4,a5
    80000bd4:	47bd                	li	a5,15
    80000bd6:	fce7f2e3          	bgeu	a5,a4,80000b9a <printptr+0x2a>
    // 然后 x <<= 4，把下一组4位移到最高位
  }
}
    80000bda:	0001                	nop
    80000bdc:	0001                	nop
    80000bde:	70a2                	ld	ra,40(sp)
    80000be0:	7402                	ld	s0,32(sp)
    80000be2:	6145                	add	sp,sp,48
    80000be4:	8082                	ret

0000000080000be6 <printf>:

/* printf() - 格式字符串解析 */
int printf(char *fmt, ...)
{
    80000be6:	7175                	add	sp,sp,-144
    80000be8:	e486                	sd	ra,72(sp)
    80000bea:	e0a2                	sd	s0,64(sp)
    80000bec:	0880                	add	s0,sp,80
    80000bee:	faa43c23          	sd	a0,-72(s0)
    80000bf2:	e40c                	sd	a1,8(s0)
    80000bf4:	e810                	sd	a2,16(s0)
    80000bf6:	ec14                	sd	a3,24(s0)
    80000bf8:	f018                	sd	a4,32(s0)
    80000bfa:	f41c                	sd	a5,40(s0)
    80000bfc:	03043823          	sd	a6,48(s0)
    80000c00:	03143c23          	sd	a7,56(s0)
  va_list ap;                 // 可变参数列表
  int i, cx, c0, c1, c2;      // 字符和索引变量
  char *s;                    // 字符串指针

  va_start(ap, fmt);          // 初始化参数列表
    80000c04:	04040793          	add	a5,s0,64
    80000c08:	faf43823          	sd	a5,-80(s0)
    80000c0c:	fb043783          	ld	a5,-80(s0)
    80000c10:	fc878793          	add	a5,a5,-56
    80000c14:	fcf43423          	sd	a5,-56(s0)
// 主循环：逐字符解析格式字符串
  for(i = 0; (cx = fmt[i] & 0xff) != 0; i++){
    80000c18:	fe042623          	sw	zero,-20(s0)
    80000c1c:	a691                	j	80000f60 <printf+0x37a>
    if(cx != '%'){
    80000c1e:	fd442783          	lw	a5,-44(s0)
    80000c22:	0007871b          	sext.w	a4,a5
    80000c26:	02500793          	li	a5,37
    80000c2a:	00f70a63          	beq	a4,a5,80000c3e <printf+0x58>
      // 普通字符直接输出
      consputc(cx);
    80000c2e:	fd442783          	lw	a5,-44(s0)
    80000c32:	853e                	mv	a0,a5
    80000c34:	00000097          	auipc	ra,0x0
    80000c38:	dd2080e7          	jalr	-558(ra) # 80000a06 <consputc>
      continue;
    80000c3c:	ae29                	j	80000f56 <printf+0x370>
    }
    // 遇到%，开始解析格式符
    i++;
    80000c3e:	fec42783          	lw	a5,-20(s0)
    80000c42:	2785                	addw	a5,a5,1
    80000c44:	fef42623          	sw	a5,-20(s0)
    c0 = fmt[i+0] & 0xff;   // 格式符的第一个字符
    80000c48:	fec42783          	lw	a5,-20(s0)
    80000c4c:	fb843703          	ld	a4,-72(s0)
    80000c50:	97ba                	add	a5,a5,a4
    80000c52:	0007c783          	lbu	a5,0(a5)
    80000c56:	fcf42823          	sw	a5,-48(s0)
    c1 = c2 = 0;
    80000c5a:	fe042223          	sw	zero,-28(s0)
    80000c5e:	fe442783          	lw	a5,-28(s0)
    80000c62:	fef42423          	sw	a5,-24(s0)
    if(c0) c1 = fmt[i+1] & 0xff;  // 可能的第二个字符（如%ld中的d）
    80000c66:	fd042783          	lw	a5,-48(s0)
    80000c6a:	2781                	sext.w	a5,a5
    80000c6c:	cb99                	beqz	a5,80000c82 <printf+0x9c>
    80000c6e:	fec42783          	lw	a5,-20(s0)
    80000c72:	0785                	add	a5,a5,1
    80000c74:	fb843703          	ld	a4,-72(s0)
    80000c78:	97ba                	add	a5,a5,a4
    80000c7a:	0007c783          	lbu	a5,0(a5)
    80000c7e:	fef42423          	sw	a5,-24(s0)
    if(c1) c2 = fmt[i+2] & 0xff;  // 可能的第三个字符（如%lld中的第二个d）
    80000c82:	fe842783          	lw	a5,-24(s0)
    80000c86:	2781                	sext.w	a5,a5
    80000c88:	cb99                	beqz	a5,80000c9e <printf+0xb8>
    80000c8a:	fec42783          	lw	a5,-20(s0)
    80000c8e:	0789                	add	a5,a5,2
    80000c90:	fb843703          	ld	a4,-72(s0)
    80000c94:	97ba                	add	a5,a5,a4
    80000c96:	0007c783          	lbu	a5,0(a5)
    80000c9a:	fef42223          	sw	a5,-28(s0)

    // 格式符处理 - 支持xv6的所有主要格式。普通字符直接输出，遇到%进入格式处理状态
    if(c0 == 'd') { 
    80000c9e:	fd042783          	lw	a5,-48(s0)
    80000ca2:	0007871b          	sext.w	a4,a5
    80000ca6:	06400793          	li	a5,100
    80000caa:	02f71163          	bne	a4,a5,80000ccc <printf+0xe6>
       // %d - 32位有符号整数   
      printint(va_arg(ap, int), 10, 1);
    80000cae:	fc843783          	ld	a5,-56(s0)
    80000cb2:	00878713          	add	a4,a5,8
    80000cb6:	fce43423          	sd	a4,-56(s0)
    80000cba:	439c                	lw	a5,0(a5)
    80000cbc:	4605                	li	a2,1
    80000cbe:	45a9                	li	a1,10
    80000cc0:	853e                	mv	a0,a5
    80000cc2:	00000097          	auipc	ra,0x0
    80000cc6:	dbe080e7          	jalr	-578(ra) # 80000a80 <printint>
    80000cca:	a471                	j	80000f56 <printf+0x370>
    } else if(c0 == 'l' && c1 == 'd'){
    80000ccc:	fd042783          	lw	a5,-48(s0)
    80000cd0:	0007871b          	sext.w	a4,a5
    80000cd4:	06c00793          	li	a5,108
    80000cd8:	02f71e63          	bne	a4,a5,80000d14 <printf+0x12e>
    80000cdc:	fe842783          	lw	a5,-24(s0)
    80000ce0:	0007871b          	sext.w	a4,a5
    80000ce4:	06400793          	li	a5,100
    80000ce8:	02f71663          	bne	a4,a5,80000d14 <printf+0x12e>
      // %ld - 64位有符号整数
      printint(va_arg(ap, uint64), 10, 1);
    80000cec:	fc843783          	ld	a5,-56(s0)
    80000cf0:	00878713          	add	a4,a5,8
    80000cf4:	fce43423          	sd	a4,-56(s0)
    80000cf8:	639c                	ld	a5,0(a5)
    80000cfa:	4605                	li	a2,1
    80000cfc:	45a9                	li	a1,10
    80000cfe:	853e                	mv	a0,a5
    80000d00:	00000097          	auipc	ra,0x0
    80000d04:	d80080e7          	jalr	-640(ra) # 80000a80 <printint>
      i += 1;// 跳过额外的字符
    80000d08:	fec42783          	lw	a5,-20(s0)
    80000d0c:	2785                	addw	a5,a5,1
    80000d0e:	fef42623          	sw	a5,-20(s0)
    80000d12:	a491                	j	80000f56 <printf+0x370>
    } else if(c0 == 'l' && c1 == 'l' && c2 == 'd'){
    80000d14:	fd042783          	lw	a5,-48(s0)
    80000d18:	0007871b          	sext.w	a4,a5
    80000d1c:	06c00793          	li	a5,108
    80000d20:	04f71663          	bne	a4,a5,80000d6c <printf+0x186>
    80000d24:	fe842783          	lw	a5,-24(s0)
    80000d28:	0007871b          	sext.w	a4,a5
    80000d2c:	06c00793          	li	a5,108
    80000d30:	02f71e63          	bne	a4,a5,80000d6c <printf+0x186>
    80000d34:	fe442783          	lw	a5,-28(s0)
    80000d38:	0007871b          	sext.w	a4,a5
    80000d3c:	06400793          	li	a5,100
    80000d40:	02f71663          	bne	a4,a5,80000d6c <printf+0x186>
      // %lld - 64位有符号整数（与%ld相同，但为兼容性）
      printint(va_arg(ap, uint64), 10, 1);
    80000d44:	fc843783          	ld	a5,-56(s0)
    80000d48:	00878713          	add	a4,a5,8
    80000d4c:	fce43423          	sd	a4,-56(s0)
    80000d50:	639c                	ld	a5,0(a5)
    80000d52:	4605                	li	a2,1
    80000d54:	45a9                	li	a1,10
    80000d56:	853e                	mv	a0,a5
    80000d58:	00000097          	auipc	ra,0x0
    80000d5c:	d28080e7          	jalr	-728(ra) # 80000a80 <printint>
      i += 2;// 跳过额外的字符
    80000d60:	fec42783          	lw	a5,-20(s0)
    80000d64:	2789                	addw	a5,a5,2
    80000d66:	fef42623          	sw	a5,-20(s0)
    80000d6a:	a2f5                	j	80000f56 <printf+0x370>
    } else if(c0 == 'u'){
    80000d6c:	fd042783          	lw	a5,-48(s0)
    80000d70:	0007871b          	sext.w	a4,a5
    80000d74:	07500793          	li	a5,117
    80000d78:	02f71363          	bne	a4,a5,80000d9e <printf+0x1b8>
      // %u - 32位无符号整数
      printint(va_arg(ap, uint32), 10, 0);
    80000d7c:	fc843783          	ld	a5,-56(s0)
    80000d80:	00878713          	add	a4,a5,8
    80000d84:	fce43423          	sd	a4,-56(s0)
    80000d88:	439c                	lw	a5,0(a5)
    80000d8a:	1782                	sll	a5,a5,0x20
    80000d8c:	9381                	srl	a5,a5,0x20
    80000d8e:	4601                	li	a2,0
    80000d90:	45a9                	li	a1,10
    80000d92:	853e                	mv	a0,a5
    80000d94:	00000097          	auipc	ra,0x0
    80000d98:	cec080e7          	jalr	-788(ra) # 80000a80 <printint>
    80000d9c:	aa6d                	j	80000f56 <printf+0x370>
    } else if(c0 == 'l' && c1 == 'u'){
    80000d9e:	fd042783          	lw	a5,-48(s0)
    80000da2:	0007871b          	sext.w	a4,a5
    80000da6:	06c00793          	li	a5,108
    80000daa:	02f71e63          	bne	a4,a5,80000de6 <printf+0x200>
    80000dae:	fe842783          	lw	a5,-24(s0)
    80000db2:	0007871b          	sext.w	a4,a5
    80000db6:	07500793          	li	a5,117
    80000dba:	02f71663          	bne	a4,a5,80000de6 <printf+0x200>
      printint(va_arg(ap, uint64), 10, 0);
    80000dbe:	fc843783          	ld	a5,-56(s0)
    80000dc2:	00878713          	add	a4,a5,8
    80000dc6:	fce43423          	sd	a4,-56(s0)
    80000dca:	639c                	ld	a5,0(a5)
    80000dcc:	4601                	li	a2,0
    80000dce:	45a9                	li	a1,10
    80000dd0:	853e                	mv	a0,a5
    80000dd2:	00000097          	auipc	ra,0x0
    80000dd6:	cae080e7          	jalr	-850(ra) # 80000a80 <printint>
      i += 1;
    80000dda:	fec42783          	lw	a5,-20(s0)
    80000dde:	2785                	addw	a5,a5,1
    80000de0:	fef42623          	sw	a5,-20(s0)
    80000de4:	aa8d                	j	80000f56 <printf+0x370>
    } else if(c0 == 'x'){// %x - 32位十六进制
    80000de6:	fd042783          	lw	a5,-48(s0)
    80000dea:	0007871b          	sext.w	a4,a5
    80000dee:	07800793          	li	a5,120
    80000df2:	02f71363          	bne	a4,a5,80000e18 <printf+0x232>
      printint(va_arg(ap, uint32), 16, 0);
    80000df6:	fc843783          	ld	a5,-56(s0)
    80000dfa:	00878713          	add	a4,a5,8
    80000dfe:	fce43423          	sd	a4,-56(s0)
    80000e02:	439c                	lw	a5,0(a5)
    80000e04:	1782                	sll	a5,a5,0x20
    80000e06:	9381                	srl	a5,a5,0x20
    80000e08:	4601                	li	a2,0
    80000e0a:	45c1                	li	a1,16
    80000e0c:	853e                	mv	a0,a5
    80000e0e:	00000097          	auipc	ra,0x0
    80000e12:	c72080e7          	jalr	-910(ra) # 80000a80 <printint>
    80000e16:	a281                	j	80000f56 <printf+0x370>
    } else if(c0 == 'l' && c1 == 'x'){
    80000e18:	fd042783          	lw	a5,-48(s0)
    80000e1c:	0007871b          	sext.w	a4,a5
    80000e20:	06c00793          	li	a5,108
    80000e24:	02f71e63          	bne	a4,a5,80000e60 <printf+0x27a>
    80000e28:	fe842783          	lw	a5,-24(s0)
    80000e2c:	0007871b          	sext.w	a4,a5
    80000e30:	07800793          	li	a5,120
    80000e34:	02f71663          	bne	a4,a5,80000e60 <printf+0x27a>
      printint(va_arg(ap, uint64), 16, 0);
    80000e38:	fc843783          	ld	a5,-56(s0)
    80000e3c:	00878713          	add	a4,a5,8
    80000e40:	fce43423          	sd	a4,-56(s0)
    80000e44:	639c                	ld	a5,0(a5)
    80000e46:	4601                	li	a2,0
    80000e48:	45c1                	li	a1,16
    80000e4a:	853e                	mv	a0,a5
    80000e4c:	00000097          	auipc	ra,0x0
    80000e50:	c34080e7          	jalr	-972(ra) # 80000a80 <printint>
      i += 1;
    80000e54:	fec42783          	lw	a5,-20(s0)
    80000e58:	2785                	addw	a5,a5,1
    80000e5a:	fef42623          	sw	a5,-20(s0)
    80000e5e:	a8e5                	j	80000f56 <printf+0x370>
    } else if(c0 == 'p'){// %p - 指针地址
    80000e60:	fd042783          	lw	a5,-48(s0)
    80000e64:	0007871b          	sext.w	a4,a5
    80000e68:	07000793          	li	a5,112
    80000e6c:	00f71f63          	bne	a4,a5,80000e8a <printf+0x2a4>
      printptr(va_arg(ap, uint64));
    80000e70:	fc843783          	ld	a5,-56(s0)
    80000e74:	00878713          	add	a4,a5,8
    80000e78:	fce43423          	sd	a4,-56(s0)
    80000e7c:	639c                	ld	a5,0(a5)
    80000e7e:	853e                	mv	a0,a5
    80000e80:	00000097          	auipc	ra,0x0
    80000e84:	cf0080e7          	jalr	-784(ra) # 80000b70 <printptr>
    80000e88:	a0f9                	j	80000f56 <printf+0x370>
    } else if(c0 == 'c'){// %c - 单个字符
    80000e8a:	fd042783          	lw	a5,-48(s0)
    80000e8e:	0007871b          	sext.w	a4,a5
    80000e92:	06300793          	li	a5,99
    80000e96:	02f71063          	bne	a4,a5,80000eb6 <printf+0x2d0>
      consputc(va_arg(ap, uint));
    80000e9a:	fc843783          	ld	a5,-56(s0)
    80000e9e:	00878713          	add	a4,a5,8
    80000ea2:	fce43423          	sd	a4,-56(s0)
    80000ea6:	439c                	lw	a5,0(a5)
    80000ea8:	2781                	sext.w	a5,a5
    80000eaa:	853e                	mv	a0,a5
    80000eac:	00000097          	auipc	ra,0x0
    80000eb0:	b5a080e7          	jalr	-1190(ra) # 80000a06 <consputc>
    80000eb4:	a04d                	j	80000f56 <printf+0x370>
    } else if(c0 == 's'){// %s - 字符串
    80000eb6:	fd042783          	lw	a5,-48(s0)
    80000eba:	0007871b          	sext.w	a4,a5
    80000ebe:	07300793          	li	a5,115
    80000ec2:	04f71a63          	bne	a4,a5,80000f16 <printf+0x330>
      // 第1步：从参数列表中取出字符串指针
      if((s = va_arg(ap, char*)) == 0)// 检查是否为NULL
    80000ec6:	fc843783          	ld	a5,-56(s0)
    80000eca:	00878713          	add	a4,a5,8
    80000ece:	fce43423          	sd	a4,-56(s0)
    80000ed2:	639c                	ld	a5,0(a5)
    80000ed4:	fcf43c23          	sd	a5,-40(s0)
    80000ed8:	fd843783          	ld	a5,-40(s0)
    80000edc:	e79d                	bnez	a5,80000f0a <printf+0x324>
        s = "(null)";// 如果是NULL，替换成安全的字符串
    80000ede:	00006797          	auipc	a5,0x6
    80000ee2:	ada78793          	add	a5,a5,-1318 # 800069b8 <userret+0x954>
    80000ee6:	fcf43c23          	sd	a5,-40(s0)
      // 第2步：逐字符输出
      for(; *s; s++)
    80000eea:	a005                	j	80000f0a <printf+0x324>
        consputc(*s);
    80000eec:	fd843783          	ld	a5,-40(s0)
    80000ef0:	0007c783          	lbu	a5,0(a5)
    80000ef4:	2781                	sext.w	a5,a5
    80000ef6:	853e                	mv	a0,a5
    80000ef8:	00000097          	auipc	ra,0x0
    80000efc:	b0e080e7          	jalr	-1266(ra) # 80000a06 <consputc>
      for(; *s; s++)
    80000f00:	fd843783          	ld	a5,-40(s0)
    80000f04:	0785                	add	a5,a5,1
    80000f06:	fcf43c23          	sd	a5,-40(s0)
    80000f0a:	fd843783          	ld	a5,-40(s0)
    80000f0e:	0007c783          	lbu	a5,0(a5)
    80000f12:	ffe9                	bnez	a5,80000eec <printf+0x306>
    80000f14:	a089                	j	80000f56 <printf+0x370>
    } else if(c0 == '%'){// %% - 输出字面的%
    80000f16:	fd042783          	lw	a5,-48(s0)
    80000f1a:	0007871b          	sext.w	a4,a5
    80000f1e:	02500793          	li	a5,37
    80000f22:	00f71963          	bne	a4,a5,80000f34 <printf+0x34e>
      consputc('%');
    80000f26:	02500513          	li	a0,37
    80000f2a:	00000097          	auipc	ra,0x0
    80000f2e:	adc080e7          	jalr	-1316(ra) # 80000a06 <consputc>
    80000f32:	a015                	j	80000f56 <printf+0x370>
    } else if(c0 == 0){
    80000f34:	fd042783          	lw	a5,-48(s0)
    80000f38:	2781                	sext.w	a5,a5
    80000f3a:	c3b1                	beqz	a5,80000f7e <printf+0x398>
      break;
    } else {// 未知格式符 - 原样输出便于调试
      consputc('%');
    80000f3c:	02500513          	li	a0,37
    80000f40:	00000097          	auipc	ra,0x0
    80000f44:	ac6080e7          	jalr	-1338(ra) # 80000a06 <consputc>
      consputc(c0);
    80000f48:	fd042783          	lw	a5,-48(s0)
    80000f4c:	853e                	mv	a0,a5
    80000f4e:	00000097          	auipc	ra,0x0
    80000f52:	ab8080e7          	jalr	-1352(ra) # 80000a06 <consputc>
  for(i = 0; (cx = fmt[i] & 0xff) != 0; i++){
    80000f56:	fec42783          	lw	a5,-20(s0)
    80000f5a:	2785                	addw	a5,a5,1
    80000f5c:	fef42623          	sw	a5,-20(s0)
    80000f60:	fec42783          	lw	a5,-20(s0)
    80000f64:	fb843703          	ld	a4,-72(s0)
    80000f68:	97ba                	add	a5,a5,a4
    80000f6a:	0007c783          	lbu	a5,0(a5)
    80000f6e:	fcf42a23          	sw	a5,-44(s0)
    80000f72:	fd442783          	lw	a5,-44(s0)
    80000f76:	2781                	sext.w	a5,a5
    80000f78:	ca0793e3          	bnez	a5,80000c1e <printf+0x38>
    80000f7c:	a011                	j	80000f80 <printf+0x39a>
      break;
    80000f7e:	0001                	nop
    }
  }
  va_end(ap);// 清理参数列表

  return 0;
    80000f80:	4781                	li	a5,0
}
    80000f82:	853e                	mv	a0,a5
    80000f84:	60a6                	ld	ra,72(sp)
    80000f86:	6406                	ld	s0,64(sp)
    80000f88:	6149                	add	sp,sp,144
    80000f8a:	8082                	ret

0000000080000f8c <panic>:

void panic(char *s)
{
    80000f8c:	1101                	add	sp,sp,-32
    80000f8e:	ec06                	sd	ra,24(sp)
    80000f90:	e822                	sd	s0,16(sp)
    80000f92:	1000                	add	s0,sp,32
    80000f94:	fea43423          	sd	a0,-24(s0)
  // 第1步：设置全局标志，告诉其他部分"系统要崩溃了"
  panicking = 1;
    80000f98:	00009797          	auipc	a5,0x9
    80000f9c:	06878793          	add	a5,a5,104 # 8000a000 <panicking>
    80000fa0:	4705                	li	a4,1
    80000fa2:	c398                	sw	a4,0(a5)
  
  // 第2步：输出崩溃信息，让程序员知道出了什么问题
  printf("panic: ");        // 固定前缀，表示这是系统崩溃
    80000fa4:	00006517          	auipc	a0,0x6
    80000fa8:	a1c50513          	add	a0,a0,-1508 # 800069c0 <userret+0x95c>
    80000fac:	00000097          	auipc	ra,0x0
    80000fb0:	c3a080e7          	jalr	-966(ra) # 80000be6 <printf>
  printf("%s\n", s);        // 输出具体的错误信息
    80000fb4:	fe843583          	ld	a1,-24(s0)
    80000fb8:	00006517          	auipc	a0,0x6
    80000fbc:	a1050513          	add	a0,a0,-1520 # 800069c8 <userret+0x964>
    80000fc0:	00000097          	auipc	ra,0x0
    80000fc4:	c26080e7          	jalr	-986(ra) # 80000be6 <printf>
  
  // 第3步：标记崩溃处理完成
  // 这时其他部分看到这个标志就知道不要再输出了
  panicked = 1;
    80000fc8:	00009797          	auipc	a5,0x9
    80000fcc:	03c78793          	add	a5,a5,60 # 8000a004 <panicked>
    80000fd0:	4705                	li	a4,1
    80000fd2:	c398                	sw	a4,0(a5)
  
  // 第4步：进入无限循环，让系统停止运行
  for(;;)
    80000fd4:	0001                	nop
    80000fd6:	bffd                	j	80000fd4 <panic+0x48>

0000000080000fd8 <printfinit>:
    ;  // 空循环，CPU在这里永远转圈
}

void printfinit(void)
{
    80000fd8:	1141                	add	sp,sp,-16
    80000fda:	e422                	sd	s0,8(sp)
    80000fdc:	0800                	add	s0,sp,16
  /* 简化版本，不需要锁初始化 */
}
    80000fde:	0001                	nop
    80000fe0:	6422                	ld	s0,8(sp)
    80000fe2:	0141                	add	sp,sp,16
    80000fe4:	8082                	ret

0000000080000fe6 <clear_screen>:
#include "types.h"
#include "defs.h"

/* 清屏函数 */
void clear_screen(void)
{
    80000fe6:	1141                	add	sp,sp,-16
    80000fe8:	e406                	sd	ra,8(sp)
    80000fea:	e022                	sd	s0,0(sp)
    80000fec:	0800                	add	s0,sp,16
  /* 直接输出ANSI转义序列，避免复杂的printf格式化 */
   // 发送ANSI转义序列：ESC[2J ESC[H
  consputc('\033');  /* ESC */
    80000fee:	456d                	li	a0,27
    80000ff0:	00000097          	auipc	ra,0x0
    80000ff4:	a16080e7          	jalr	-1514(ra) # 80000a06 <consputc>
  consputc('[');// 开始ANSI序列
    80000ff8:	05b00513          	li	a0,91
    80000ffc:	00000097          	auipc	ra,0x0
    80001000:	a0a080e7          	jalr	-1526(ra) # 80000a06 <consputc>
  consputc('2');     // 清屏命令参数
    80001004:	03200513          	li	a0,50
    80001008:	00000097          	auipc	ra,0x0
    8000100c:	9fe080e7          	jalr	-1538(ra) # 80000a06 <consputc>
  consputc('J');     /* 清除整个屏幕 */
    80001010:	04a00513          	li	a0,74
    80001014:	00000097          	auipc	ra,0x0
    80001018:	9f2080e7          	jalr	-1550(ra) # 80000a06 <consputc>
  consputc('\033');  /* ESC */
    8000101c:	456d                	li	a0,27
    8000101e:	00000097          	auipc	ra,0x0
    80001022:	9e8080e7          	jalr	-1560(ra) # 80000a06 <consputc>
  consputc('[');
    80001026:	05b00513          	li	a0,91
    8000102a:	00000097          	auipc	ra,0x0
    8000102e:	9dc080e7          	jalr	-1572(ra) # 80000a06 <consputc>
  consputc('H');     /* 光标回到左上角 */
    80001032:	04800513          	li	a0,72
    80001036:	00000097          	auipc	ra,0x0
    8000103a:	9d0080e7          	jalr	-1584(ra) # 80000a06 <consputc>
}
    8000103e:	0001                	nop
    80001040:	60a2                	ld	ra,8(sp)
    80001042:	6402                	ld	s0,0(sp)
    80001044:	0141                	add	sp,sp,16
    80001046:	8082                	ret

0000000080001048 <print_number>:

/* 数字输出辅助函数 */
static void print_number(int num)
{
    80001048:	1101                	add	sp,sp,-32
    8000104a:	ec06                	sd	ra,24(sp)
    8000104c:	e822                	sd	s0,16(sp)
    8000104e:	1000                	add	s0,sp,32
    80001050:	87aa                	mv	a5,a0
    80001052:	fef42623          	sw	a5,-20(s0)
  if(num >= 10) {
    80001056:	fec42783          	lw	a5,-20(s0)
    8000105a:	0007871b          	sext.w	a4,a5
    8000105e:	47a5                	li	a5,9
    80001060:	00e7de63          	bge	a5,a4,8000107c <print_number+0x34>
    print_number(num / 10);// 递归处理高位
    80001064:	fec42783          	lw	a5,-20(s0)
    80001068:	873e                	mv	a4,a5
    8000106a:	47a9                	li	a5,10
    8000106c:	02f747bb          	divw	a5,a4,a5
    80001070:	2781                	sext.w	a5,a5
    80001072:	853e                	mv	a0,a5
    80001074:	00000097          	auipc	ra,0x0
    80001078:	fd4080e7          	jalr	-44(ra) # 80001048 <print_number>
  }
  consputc('0' + (num % 10));// 输出当前位
    8000107c:	fec42783          	lw	a5,-20(s0)
    80001080:	873e                	mv	a4,a5
    80001082:	47a9                	li	a5,10
    80001084:	02f767bb          	remw	a5,a4,a5
    80001088:	2781                	sext.w	a5,a5
    8000108a:	0307879b          	addw	a5,a5,48
    8000108e:	2781                	sext.w	a5,a5
    80001090:	853e                	mv	a0,a5
    80001092:	00000097          	auipc	ra,0x0
    80001096:	974080e7          	jalr	-1676(ra) # 80000a06 <consputc>
}
    8000109a:	0001                	nop
    8000109c:	60e2                	ld	ra,24(sp)
    8000109e:	6442                	ld	s0,16(sp)
    800010a0:	6105                	add	sp,sp,32
    800010a2:	8082                	ret

00000000800010a4 <set_cursor>:
// 5. 返回步骤1，输出 '3'
// 结果：输出 "123"

/* 光标定位函数 */
void set_cursor(int x, int y)
{
    800010a4:	1101                	add	sp,sp,-32
    800010a6:	ec06                	sd	ra,24(sp)
    800010a8:	e822                	sd	s0,16(sp)
    800010aa:	1000                	add	s0,sp,32
    800010ac:	87aa                	mv	a5,a0
    800010ae:	872e                	mv	a4,a1
    800010b0:	fef42623          	sw	a5,-20(s0)
    800010b4:	87ba                	mv	a5,a4
    800010b6:	fef42423          	sw	a5,-24(s0)
  // 发送ANSI序列：ESC[y;xH
  consputc('\033');  /* ESC */
    800010ba:	456d                	li	a0,27
    800010bc:	00000097          	auipc	ra,0x0
    800010c0:	94a080e7          	jalr	-1718(ra) # 80000a06 <consputc>
  consputc('[');
    800010c4:	05b00513          	li	a0,91
    800010c8:	00000097          	auipc	ra,0x0
    800010cc:	93e080e7          	jalr	-1730(ra) # 80000a06 <consputc>
  print_number(y);// 行号
    800010d0:	fe842783          	lw	a5,-24(s0)
    800010d4:	853e                	mv	a0,a5
    800010d6:	00000097          	auipc	ra,0x0
    800010da:	f72080e7          	jalr	-142(ra) # 80001048 <print_number>
  consputc(';');     // 分隔符
    800010de:	03b00513          	li	a0,59
    800010e2:	00000097          	auipc	ra,0x0
    800010e6:	924080e7          	jalr	-1756(ra) # 80000a06 <consputc>
  print_number(x);   // 列号  
    800010ea:	fec42783          	lw	a5,-20(s0)
    800010ee:	853e                	mv	a0,a5
    800010f0:	00000097          	auipc	ra,0x0
    800010f4:	f58080e7          	jalr	-168(ra) # 80001048 <print_number>
  consputc('H');     // 定位命令，移动光标
    800010f8:	04800513          	li	a0,72
    800010fc:	00000097          	auipc	ra,0x0
    80001100:	90a080e7          	jalr	-1782(ra) # 80000a06 <consputc>
}
    80001104:	0001                	nop
    80001106:	60e2                	ld	ra,24(sp)
    80001108:	6442                	ld	s0,16(sp)
    8000110a:	6105                	add	sp,sp,32
    8000110c:	8082                	ret

000000008000110e <memset>:
// 简单的memset实现 
// 用途：页面清零、安全擦除等
/*如果程序错误地访问已释放的页面，会读到全是1的数据
这种异常的数据模式很容易被发现，有助于调试
如果不填充，程序可能读到看似正常的旧数据，bug很难发现*/
void* memset(void *dst, int c, uint n) {
    8000110e:	7179                	add	sp,sp,-48
    80001110:	f422                	sd	s0,40(sp)
    80001112:	1800                	add	s0,sp,48
    80001114:	fca43c23          	sd	a0,-40(s0)
    80001118:	87ae                	mv	a5,a1
    8000111a:	8732                	mv	a4,a2
    8000111c:	fcf42a23          	sw	a5,-44(s0)
    80001120:	87ba                	mv	a5,a4
    80001122:	fcf42823          	sw	a5,-48(s0)
    char *cdst = (char*)dst;
    80001126:	fd843783          	ld	a5,-40(s0)
    8000112a:	fef43023          	sd	a5,-32(s0)
    int i;
    // 逐字节填充，实现简单可靠
    for(i = 0; i < n; i++) {
    8000112e:	fe042623          	sw	zero,-20(s0)
    80001132:	a00d                	j	80001154 <memset+0x46>
        cdst[i] = c;
    80001134:	fec42783          	lw	a5,-20(s0)
    80001138:	fe043703          	ld	a4,-32(s0)
    8000113c:	97ba                	add	a5,a5,a4
    8000113e:	fd442703          	lw	a4,-44(s0)
    80001142:	0ff77713          	zext.b	a4,a4
    80001146:	00e78023          	sb	a4,0(a5)
    for(i = 0; i < n; i++) {
    8000114a:	fec42783          	lw	a5,-20(s0)
    8000114e:	2785                	addw	a5,a5,1
    80001150:	fef42623          	sw	a5,-20(s0)
    80001154:	fec42703          	lw	a4,-20(s0)
    80001158:	fd042783          	lw	a5,-48(s0)
    8000115c:	2781                	sext.w	a5,a5
    8000115e:	fcf76be3          	bltu	a4,a5,80001134 <memset+0x26>
    }
    return dst;
    80001162:	fd843783          	ld	a5,-40(s0)
}
    80001166:	853e                	mv	a0,a5
    80001168:	7422                	ld	s0,40(sp)
    8000116a:	6145                	add	sp,sp,48
    8000116c:	8082                	ret

000000008000116e <memcpy>:
void* memcpy(void *dst, const void *src, uint n) {
    8000116e:	715d                	add	sp,sp,-80
    80001170:	e4a2                	sd	s0,72(sp)
    80001172:	0880                	add	s0,sp,80
    80001174:	fca43423          	sd	a0,-56(s0)
    80001178:	fcb43023          	sd	a1,-64(s0)
    8000117c:	87b2                	mv	a5,a2
    8000117e:	faf42e23          	sw	a5,-68(s0)
    char *cdst = (char*)dst;
    80001182:	fc843783          	ld	a5,-56(s0)
    80001186:	fef43023          	sd	a5,-32(s0)
    const char *csrc = (const char*)src;
    8000118a:	fc043783          	ld	a5,-64(s0)
    8000118e:	fcf43c23          	sd	a5,-40(s0)
    
    // 逐字节复制
    for(uint i = 0; i < n; i++) {
    80001192:	fe042623          	sw	zero,-20(s0)
    80001196:	a025                	j	800011be <memcpy+0x50>
        cdst[i] = csrc[i];
    80001198:	fec46783          	lwu	a5,-20(s0)
    8000119c:	fd843703          	ld	a4,-40(s0)
    800011a0:	973e                	add	a4,a4,a5
    800011a2:	fec46783          	lwu	a5,-20(s0)
    800011a6:	fe043683          	ld	a3,-32(s0)
    800011aa:	97b6                	add	a5,a5,a3
    800011ac:	00074703          	lbu	a4,0(a4)
    800011b0:	00e78023          	sb	a4,0(a5)
    for(uint i = 0; i < n; i++) {
    800011b4:	fec42783          	lw	a5,-20(s0)
    800011b8:	2785                	addw	a5,a5,1
    800011ba:	fef42623          	sw	a5,-20(s0)
    800011be:	fec42783          	lw	a5,-20(s0)
    800011c2:	873e                	mv	a4,a5
    800011c4:	fbc42783          	lw	a5,-68(s0)
    800011c8:	2701                	sext.w	a4,a4
    800011ca:	2781                	sext.w	a5,a5
    800011cc:	fcf766e3          	bltu	a4,a5,80001198 <memcpy+0x2a>
    }
    
    return dst;
    800011d0:	fc843783          	ld	a5,-56(s0)
}
    800011d4:	853e                	mv	a0,a5
    800011d6:	6426                	ld	s0,72(sp)
    800011d8:	6161                	add	sp,sp,80
    800011da:	8082                	ret

00000000800011dc <pmm_init>:
// ==================== 初始化物理内存分配器 ====================
void pmm_init(void) {
    800011dc:	7179                	add	sp,sp,-48
    800011de:	f406                	sd	ra,40(sp)
    800011e0:	f022                	sd	s0,32(sp)
    800011e2:	1800                	add	s0,sp,48
    // 第一步：确定可分配内存范围
    // 内存布局: [内核代码+数据] [可分配区域] [内存结束]
    //          ^end           ^mem_start    ^PHYSTOP
    char *mem_start = (char*)PGROUNDUP((uint64)end);  // 内核结束后的第一个页面边界
    800011e4:	00011717          	auipc	a4,0x11
    800011e8:	e1c70713          	add	a4,a4,-484 # 80012000 <end>
    800011ec:	6785                	lui	a5,0x1
    800011ee:	17fd                	add	a5,a5,-1 # fff <_entry-0x7ffff001>
    800011f0:	973e                	add	a4,a4,a5
    800011f2:	77fd                	lui	a5,0xfffff
    800011f4:	8ff9                	and	a5,a5,a4
    800011f6:	fef43023          	sd	a5,-32(s0)
    char *mem_end = (char*)PHYSTOP;                   // 物理内存结束位置
    800011fa:	47c5                	li	a5,17
    800011fc:	07ee                	sll	a5,a5,0x1b
    800011fe:	fcf43c23          	sd	a5,-40(s0)
    
    // 第二步：初始化管理器状态
    kmem.freelist = 0;      // 空链表
    80001202:	0000d797          	auipc	a5,0xd
    80001206:	dfe78793          	add	a5,a5,-514 # 8000e000 <kmem>
    8000120a:	0007b023          	sd	zero,0(a5)
    kmem.total_pages = 0;   // 计数器清零
    8000120e:	0000d797          	auipc	a5,0xd
    80001212:	df278793          	add	a5,a5,-526 # 8000e000 <kmem>
    80001216:	0007b423          	sd	zero,8(a5)
    kmem.free_pages = 0;
    8000121a:	0000d797          	auipc	a5,0xd
    8000121e:	de678793          	add	a5,a5,-538 # 8000e000 <kmem>
    80001222:	0007b823          	sd	zero,16(a5)
    
    printf("PMM: Initializing memory from %p to %p\n", mem_start, mem_end);
    80001226:	fd843603          	ld	a2,-40(s0)
    8000122a:	fe043583          	ld	a1,-32(s0)
    8000122e:	00005517          	auipc	a0,0x5
    80001232:	7a250513          	add	a0,a0,1954 # 800069d0 <userret+0x96c>
    80001236:	00000097          	auipc	ra,0x0
    8000123a:	9b0080e7          	jalr	-1616(ra) # 80000be6 <printf>
    
    // 第三步：构建空闲页面链表
    // 遍历所有可用页面，逐个加入空闲链表
    char *p;
    for(p = mem_start; p + PGSIZE <= mem_end; p += PGSIZE) {
    8000123e:	fe043783          	ld	a5,-32(s0)
    80001242:	fef43423          	sd	a5,-24(s0)
    80001246:	a089                	j	80001288 <pmm_init+0xac>
        // 为什么要清零？确保页面内容干净，避免信息泄露
        memset(p, 0, PGSIZE);
    80001248:	6605                	lui	a2,0x1
    8000124a:	4581                	li	a1,0
    8000124c:	fe843503          	ld	a0,-24(s0)
    80001250:	00000097          	auipc	ra,0x0
    80001254:	ebe080e7          	jalr	-322(ra) # 8000110e <memset>
        // 调用free_page将页面加入链表，复用释放逻辑
        free_page(p);
    80001258:	fe843503          	ld	a0,-24(s0)
    8000125c:	00000097          	auipc	ra,0x0
    80001260:	0ee080e7          	jalr	238(ra) # 8000134a <free_page>
        kmem.total_pages++;   // 统计总页面数
    80001264:	0000d797          	auipc	a5,0xd
    80001268:	d9c78793          	add	a5,a5,-612 # 8000e000 <kmem>
    8000126c:	679c                	ld	a5,8(a5)
    8000126e:	00178713          	add	a4,a5,1
    80001272:	0000d797          	auipc	a5,0xd
    80001276:	d8e78793          	add	a5,a5,-626 # 8000e000 <kmem>
    8000127a:	e798                	sd	a4,8(a5)
    for(p = mem_start; p + PGSIZE <= mem_end; p += PGSIZE) {
    8000127c:	fe843703          	ld	a4,-24(s0)
    80001280:	6785                	lui	a5,0x1
    80001282:	97ba                	add	a5,a5,a4
    80001284:	fef43423          	sd	a5,-24(s0)
    80001288:	fe843703          	ld	a4,-24(s0)
    8000128c:	6785                	lui	a5,0x1
    8000128e:	97ba                	add	a5,a5,a4
    80001290:	fd843703          	ld	a4,-40(s0)
    80001294:	faf77ae3          	bgeu	a4,a5,80001248 <pmm_init+0x6c>
    }
    
    printf("PMM: Initialized %d pages (%d KB)\n", 
           (int)kmem.total_pages, (int)(kmem.total_pages * PGSIZE) / 1024);
    80001298:	0000d797          	auipc	a5,0xd
    8000129c:	d6878793          	add	a5,a5,-664 # 8000e000 <kmem>
    800012a0:	679c                	ld	a5,8(a5)
    printf("PMM: Initialized %d pages (%d KB)\n", 
    800012a2:	0007869b          	sext.w	a3,a5
           (int)kmem.total_pages, (int)(kmem.total_pages * PGSIZE) / 1024);
    800012a6:	0000d797          	auipc	a5,0xd
    800012aa:	d5a78793          	add	a5,a5,-678 # 8000e000 <kmem>
    800012ae:	679c                	ld	a5,8(a5)
    800012b0:	2781                	sext.w	a5,a5
    800012b2:	00c7979b          	sllw	a5,a5,0xc
    800012b6:	2781                	sext.w	a5,a5
    800012b8:	2781                	sext.w	a5,a5
    printf("PMM: Initialized %d pages (%d KB)\n", 
    800012ba:	41f7d71b          	sraw	a4,a5,0x1f
    800012be:	0167571b          	srlw	a4,a4,0x16
    800012c2:	9fb9                	addw	a5,a5,a4
    800012c4:	40a7d79b          	sraw	a5,a5,0xa
    800012c8:	2781                	sext.w	a5,a5
    800012ca:	863e                	mv	a2,a5
    800012cc:	85b6                	mv	a1,a3
    800012ce:	00005517          	auipc	a0,0x5
    800012d2:	72a50513          	add	a0,a0,1834 # 800069f8 <userret+0x994>
    800012d6:	00000097          	auipc	ra,0x0
    800012da:	910080e7          	jalr	-1776(ra) # 80000be6 <printf>
}
    800012de:	0001                	nop
    800012e0:	70a2                	ld	ra,40(sp)
    800012e2:	7402                	ld	s0,32(sp)
    800012e4:	6145                	add	sp,sp,48
    800012e6:	8082                	ret

00000000800012e8 <alloc_page>:

// ==================== 分配一个物理页面 ====================
// 算法特点：LIFO(后进先出)，最近释放的页面优先被分配
// 时间复杂度：O(1) - 仅涉及链表头操作
void* alloc_page(void) {
    800012e8:	1101                	add	sp,sp,-32
    800012ea:	ec06                	sd	ra,24(sp)
    800012ec:	e822                	sd	s0,16(sp)
    800012ee:	1000                	add	s0,sp,32
    struct run *r;
    
    // 从链表头取出一个空闲页面
    r = kmem.freelist;
    800012f0:	0000d797          	auipc	a5,0xd
    800012f4:	d1078793          	add	a5,a5,-752 # 8000e000 <kmem>
    800012f8:	639c                	ld	a5,0(a5)
    800012fa:	fef43423          	sd	a5,-24(s0)
    if(r) {
    800012fe:	fe843783          	ld	a5,-24(s0)
    80001302:	cf8d                	beqz	a5,8000133c <alloc_page+0x54>
        // 更新链表头指向下一个空闲页面
        kmem.freelist = r->next;
    80001304:	fe843783          	ld	a5,-24(s0)
    80001308:	6398                	ld	a4,0(a5)
    8000130a:	0000d797          	auipc	a5,0xd
    8000130e:	cf678793          	add	a5,a5,-778 # 8000e000 <kmem>
    80001312:	e398                	sd	a4,0(a5)
        kmem.free_pages--;      // 更新空闲页面计数
    80001314:	0000d797          	auipc	a5,0xd
    80001318:	cec78793          	add	a5,a5,-788 # 8000e000 <kmem>
    8000131c:	6b9c                	ld	a5,16(a5)
    8000131e:	fff78713          	add	a4,a5,-1
    80001322:	0000d797          	auipc	a5,0xd
    80001326:	cde78793          	add	a5,a5,-802 # 8000e000 <kmem>
    8000132a:	eb98                	sd	a4,16(a5)
        
        // 安全措施：清零分配的页面，防止信息泄露
        // 确保新分配的页面内容是干净的
        memset((char*)r, 0, PGSIZE);
    8000132c:	6605                	lui	a2,0x1
    8000132e:	4581                	li	a1,0
    80001330:	fe843503          	ld	a0,-24(s0)
    80001334:	00000097          	auipc	ra,0x0
    80001338:	dda080e7          	jalr	-550(ra) # 8000110e <memset>
    }
    // 如果r为NULL，表示内存耗尽，返回NULL
    
    return (void*)r;
    8000133c:	fe843783          	ld	a5,-24(s0)
}
    80001340:	853e                	mv	a0,a5
    80001342:	60e2                	ld	ra,24(sp)
    80001344:	6442                	ld	s0,16(sp)
    80001346:	6105                	add	sp,sp,32
    80001348:	8082                	ret

000000008000134a <free_page>:

// ==================== 释放一个物理页面 ====================  
// 算法特点：将页面插入链表头，实现LIFO释放
// 时间复杂度：O(1) - 仅涉及链表头操作
void free_page(void* pa) {
    8000134a:	7179                	add	sp,sp,-48
    8000134c:	f406                	sd	ra,40(sp)
    8000134e:	f022                	sd	s0,32(sp)
    80001350:	1800                	add	s0,sp,48
    80001352:	fca43c23          	sd	a0,-40(s0)
    struct run *r;
    
    // 第一步：地址有效性检查
    // 检查页面对齐：物理地址必须是4KB的整数倍
    if(((uint64)pa % PGSIZE) != 0)
    80001356:	fd843703          	ld	a4,-40(s0)
    8000135a:	6785                	lui	a5,0x1
    8000135c:	17fd                	add	a5,a5,-1 # fff <_entry-0x7ffff001>
    8000135e:	8ff9                	and	a5,a5,a4
    80001360:	cb89                	beqz	a5,80001372 <free_page+0x28>
        panic("free_page: not page aligned");
    80001362:	00005517          	auipc	a0,0x5
    80001366:	6be50513          	add	a0,a0,1726 # 80006a20 <userret+0x9bc>
    8000136a:	00000097          	auipc	ra,0x0
    8000136e:	c22080e7          	jalr	-990(ra) # 80000f8c <panic>
    
    // 检查地址范围：必须在可管理的内存范围内
    // 防止释放内核代码/数据区域或超出物理内存的地址
    if((char*)pa < end || (uint64)pa >= PHYSTOP)
    80001372:	fd843703          	ld	a4,-40(s0)
    80001376:	00011797          	auipc	a5,0x11
    8000137a:	c8a78793          	add	a5,a5,-886 # 80012000 <end>
    8000137e:	00f76863          	bltu	a4,a5,8000138e <free_page+0x44>
    80001382:	fd843703          	ld	a4,-40(s0)
    80001386:	47c5                	li	a5,17
    80001388:	07ee                	sll	a5,a5,0x1b
    8000138a:	00f76a63          	bltu	a4,a5,8000139e <free_page+0x54>
        panic("free_page: invalid address");
    8000138e:	00005517          	auipc	a0,0x5
    80001392:	6b250513          	add	a0,a0,1714 # 80006a40 <userret+0x9dc>
    80001396:	00000097          	auipc	ra,0x0
    8000139a:	bf6080e7          	jalr	-1034(ra) # 80000f8c <panic>

     // 检查是否已经释放过.在释放的页面中放置一个特殊的标记，下次释放时检查这个标记。
    uint32 *magic_ptr = (uint32*)pa;
    8000139e:	fd843783          	ld	a5,-40(s0)
    800013a2:	fef43423          	sd	a5,-24(s0)
    if(*magic_ptr == FREE_MAGIC) {
    800013a6:	fe843783          	ld	a5,-24(s0)
    800013aa:	439c                	lw	a5,0(a5)
    800013ac:	873e                	mv	a4,a5
    800013ae:	deadc7b7          	lui	a5,0xdeadc
    800013b2:	eef78793          	add	a5,a5,-273 # ffffffffdeadbeef <end+0xffffffff5eac9eef>
    800013b6:	00f71a63          	bne	a4,a5,800013ca <free_page+0x80>
        panic("free_page: double free detected");
    800013ba:	00005517          	auipc	a0,0x5
    800013be:	6a650513          	add	a0,a0,1702 # 80006a60 <userret+0x9fc>
    800013c2:	00000097          	auipc	ra,0x0
    800013c6:	bca080e7          	jalr	-1078(ra) # 80000f8c <panic>
    }
    
    // 填充魔数而不是全部填1
    *magic_ptr = FREE_MAGIC;
    800013ca:	fe843783          	ld	a5,-24(s0)
    800013ce:	deadc737          	lui	a4,0xdeadc
    800013d2:	eef70713          	add	a4,a4,-273 # ffffffffdeadbeef <end+0xffffffff5eac9eef>
    800013d6:	c398                	sw	a4,0(a5)
    // 第二步：安全擦除页面内容
    // 填充特殊值(1)有助于检测use-after-free错误
    // 如果程序试图使用已释放的页面，会读到异常的数据模式
    // 其余部分仍然填1
    memset((char*)pa + 4, 1, PGSIZE - 4);
    800013d8:	fd843783          	ld	a5,-40(s0)
    800013dc:	00478713          	add	a4,a5,4
    800013e0:	6785                	lui	a5,0x1
    800013e2:	ffc78613          	add	a2,a5,-4 # ffc <_entry-0x7ffff004>
    800013e6:	4585                	li	a1,1
    800013e8:	853a                	mv	a0,a4
    800013ea:	00000097          	auipc	ra,0x0
    800013ee:	d24080e7          	jalr	-732(ra) # 8000110e <memset>
    
    // 第三步：将页面插入空闲链表头部
    r = (struct run*)pa;        // 将页面地址转换为链表节点
    800013f2:	fd843783          	ld	a5,-40(s0)
    800013f6:	fef43023          	sd	a5,-32(s0)
    r->next = kmem.freelist;    // 新节点指向当前链表头
    800013fa:	0000d797          	auipc	a5,0xd
    800013fe:	c0678793          	add	a5,a5,-1018 # 8000e000 <kmem>
    80001402:	6398                	ld	a4,0(a5)
    80001404:	fe043783          	ld	a5,-32(s0)
    80001408:	e398                	sd	a4,0(a5)
    kmem.freelist = r;          // 更新链表头为新节点
    8000140a:	0000d797          	auipc	a5,0xd
    8000140e:	bf678793          	add	a5,a5,-1034 # 8000e000 <kmem>
    80001412:	fe043703          	ld	a4,-32(s0)
    80001416:	e398                	sd	a4,0(a5)
    kmem.free_pages++;          // 更新空闲页面计数
    80001418:	0000d797          	auipc	a5,0xd
    8000141c:	be878793          	add	a5,a5,-1048 # 8000e000 <kmem>
    80001420:	6b9c                	ld	a5,16(a5)
    80001422:	00178713          	add	a4,a5,1
    80001426:	0000d797          	auipc	a5,0xd
    8000142a:	bda78793          	add	a5,a5,-1062 # 8000e000 <kmem>
    8000142e:	eb98                	sd	a4,16(a5)
}
    80001430:	0001                	nop
    80001432:	70a2                	ld	ra,40(sp)
    80001434:	7402                	ld	s0,32(sp)
    80001436:	6145                	add	sp,sp,48
    80001438:	8082                	ret

000000008000143a <pmm_info>:

// ==================== 内存使用信息统计 ====================
// 用途：调试、监控、性能分析
void pmm_info(void) {
    8000143a:	1141                	add	sp,sp,-16
    8000143c:	e406                	sd	ra,8(sp)
    8000143e:	e022                	sd	s0,0(sp)
    80001440:	0800                	add	s0,sp,16
    printf("Memory Info:\n");
    80001442:	00005517          	auipc	a0,0x5
    80001446:	63e50513          	add	a0,a0,1598 # 80006a80 <userret+0xa1c>
    8000144a:	fffff097          	auipc	ra,0xfffff
    8000144e:	79c080e7          	jalr	1948(ra) # 80000be6 <printf>
    printf("  Total pages: %d (%d KB)\n", 
           (int)kmem.total_pages, (int)(kmem.total_pages * PGSIZE) / 1024);
    80001452:	0000d797          	auipc	a5,0xd
    80001456:	bae78793          	add	a5,a5,-1106 # 8000e000 <kmem>
    8000145a:	679c                	ld	a5,8(a5)
    printf("  Total pages: %d (%d KB)\n", 
    8000145c:	0007869b          	sext.w	a3,a5
           (int)kmem.total_pages, (int)(kmem.total_pages * PGSIZE) / 1024);
    80001460:	0000d797          	auipc	a5,0xd
    80001464:	ba078793          	add	a5,a5,-1120 # 8000e000 <kmem>
    80001468:	679c                	ld	a5,8(a5)
    8000146a:	2781                	sext.w	a5,a5
    8000146c:	00c7979b          	sllw	a5,a5,0xc
    80001470:	2781                	sext.w	a5,a5
    80001472:	2781                	sext.w	a5,a5
    printf("  Total pages: %d (%d KB)\n", 
    80001474:	41f7d71b          	sraw	a4,a5,0x1f
    80001478:	0167571b          	srlw	a4,a4,0x16
    8000147c:	9fb9                	addw	a5,a5,a4
    8000147e:	40a7d79b          	sraw	a5,a5,0xa
    80001482:	2781                	sext.w	a5,a5
    80001484:	863e                	mv	a2,a5
    80001486:	85b6                	mv	a1,a3
    80001488:	00005517          	auipc	a0,0x5
    8000148c:	60850513          	add	a0,a0,1544 # 80006a90 <userret+0xa2c>
    80001490:	fffff097          	auipc	ra,0xfffff
    80001494:	756080e7          	jalr	1878(ra) # 80000be6 <printf>
    printf("  Free pages:  %d (%d KB)\n", 
           (int)kmem.free_pages, (int)(kmem.free_pages * PGSIZE) / 1024);
    80001498:	0000d797          	auipc	a5,0xd
    8000149c:	b6878793          	add	a5,a5,-1176 # 8000e000 <kmem>
    800014a0:	6b9c                	ld	a5,16(a5)
    printf("  Free pages:  %d (%d KB)\n", 
    800014a2:	0007869b          	sext.w	a3,a5
           (int)kmem.free_pages, (int)(kmem.free_pages * PGSIZE) / 1024);
    800014a6:	0000d797          	auipc	a5,0xd
    800014aa:	b5a78793          	add	a5,a5,-1190 # 8000e000 <kmem>
    800014ae:	6b9c                	ld	a5,16(a5)
    800014b0:	2781                	sext.w	a5,a5
    800014b2:	00c7979b          	sllw	a5,a5,0xc
    800014b6:	2781                	sext.w	a5,a5
    800014b8:	2781                	sext.w	a5,a5
    printf("  Free pages:  %d (%d KB)\n", 
    800014ba:	41f7d71b          	sraw	a4,a5,0x1f
    800014be:	0167571b          	srlw	a4,a4,0x16
    800014c2:	9fb9                	addw	a5,a5,a4
    800014c4:	40a7d79b          	sraw	a5,a5,0xa
    800014c8:	2781                	sext.w	a5,a5
    800014ca:	863e                	mv	a2,a5
    800014cc:	85b6                	mv	a1,a3
    800014ce:	00005517          	auipc	a0,0x5
    800014d2:	5e250513          	add	a0,a0,1506 # 80006ab0 <userret+0xa4c>
    800014d6:	fffff097          	auipc	ra,0xfffff
    800014da:	710080e7          	jalr	1808(ra) # 80000be6 <printf>
    printf("  Used pages:  %d (%d KB)\n", 
           (int)(kmem.total_pages - kmem.free_pages), 
    800014de:	0000d797          	auipc	a5,0xd
    800014e2:	b2278793          	add	a5,a5,-1246 # 8000e000 <kmem>
    800014e6:	679c                	ld	a5,8(a5)
    800014e8:	0007871b          	sext.w	a4,a5
    800014ec:	0000d797          	auipc	a5,0xd
    800014f0:	b1478793          	add	a5,a5,-1260 # 8000e000 <kmem>
    800014f4:	6b9c                	ld	a5,16(a5)
    800014f6:	2781                	sext.w	a5,a5
    800014f8:	40f707bb          	subw	a5,a4,a5
    800014fc:	2781                	sext.w	a5,a5
    printf("  Used pages:  %d (%d KB)\n", 
    800014fe:	0007869b          	sext.w	a3,a5
           (int)((kmem.total_pages - kmem.free_pages) * PGSIZE) / 1024);
    80001502:	0000d797          	auipc	a5,0xd
    80001506:	afe78793          	add	a5,a5,-1282 # 8000e000 <kmem>
    8000150a:	6798                	ld	a4,8(a5)
    8000150c:	0000d797          	auipc	a5,0xd
    80001510:	af478793          	add	a5,a5,-1292 # 8000e000 <kmem>
    80001514:	6b9c                	ld	a5,16(a5)
    80001516:	40f707b3          	sub	a5,a4,a5
    8000151a:	2781                	sext.w	a5,a5
    8000151c:	00c7979b          	sllw	a5,a5,0xc
    80001520:	2781                	sext.w	a5,a5
    80001522:	2781                	sext.w	a5,a5
    printf("  Used pages:  %d (%d KB)\n", 
    80001524:	41f7d71b          	sraw	a4,a5,0x1f
    80001528:	0167571b          	srlw	a4,a4,0x16
    8000152c:	9fb9                	addw	a5,a5,a4
    8000152e:	40a7d79b          	sraw	a5,a5,0xa
    80001532:	2781                	sext.w	a5,a5
    80001534:	863e                	mv	a2,a5
    80001536:	85b6                	mv	a1,a3
    80001538:	00005517          	auipc	a0,0x5
    8000153c:	59850513          	add	a0,a0,1432 # 80006ad0 <userret+0xa6c>
    80001540:	fffff097          	auipc	ra,0xfffff
    80001544:	6a6080e7          	jalr	1702(ra) # 80000be6 <printf>
}
    80001548:	0001                	nop
    8000154a:	60a2                	ld	ra,8(sp)
    8000154c:	6402                	ld	s0,0(sp)
    8000154e:	0141                	add	sp,sp,16
    80001550:	8082                	ret

0000000080001552 <sfence_vma>:
        a += PGSIZE;
        pa += PGSIZE;
    }
    return 0;
}

    80001552:	1141                	add	sp,sp,-16
    80001554:	e422                	sd	s0,8(sp)
    80001556:	0800                	add	s0,sp,16
// 初始化内核页表
    80001558:	12000073          	sfence.vma
void kvminit(void)
    8000155c:	0001                	nop
    8000155e:	6422                	ld	s0,8(sp)
    80001560:	0141                	add	sp,sp,16
    80001562:	8082                	ret

0000000080001564 <create_pagetable>:
pagetable_t create_pagetable(void) {
    80001564:	1101                	add	sp,sp,-32
    80001566:	ec06                	sd	ra,24(sp)
    80001568:	e822                	sd	s0,16(sp)
    8000156a:	1000                	add	s0,sp,32
    pagetable_t pagetable = (pagetable_t)alloc_page();
    8000156c:	00000097          	auipc	ra,0x0
    80001570:	d7c080e7          	jalr	-644(ra) # 800012e8 <alloc_page>
    80001574:	fea43423          	sd	a0,-24(s0)
    if(pagetable == 0)
    80001578:	fe843783          	ld	a5,-24(s0)
    8000157c:	e399                	bnez	a5,80001582 <create_pagetable+0x1e>
        return 0;
    8000157e:	4781                	li	a5,0
    80001580:	a019                	j	80001586 <create_pagetable+0x22>
    return pagetable;
    80001582:	fe843783          	ld	a5,-24(s0)
}
    80001586:	853e                	mv	a0,a5
    80001588:	60e2                	ld	ra,24(sp)
    8000158a:	6442                	ld	s0,16(sp)
    8000158c:	6105                	add	sp,sp,32
    8000158e:	8082                	ret

0000000080001590 <freewalk>:
static void freewalk(pagetable_t pagetable) {
    80001590:	7139                	add	sp,sp,-64
    80001592:	fc06                	sd	ra,56(sp)
    80001594:	f822                	sd	s0,48(sp)
    80001596:	0080                	add	s0,sp,64
    80001598:	fca43423          	sd	a0,-56(s0)
    for(int i = 0; i < 512; i++) {
    8000159c:	fe042623          	sw	zero,-20(s0)
    800015a0:	a8a1                	j	800015f8 <freewalk+0x68>
        pte_t pte = pagetable[i];
    800015a2:	fec42783          	lw	a5,-20(s0)
    800015a6:	078e                	sll	a5,a5,0x3
    800015a8:	fc843703          	ld	a4,-56(s0)
    800015ac:	97ba                	add	a5,a5,a4
    800015ae:	639c                	ld	a5,0(a5)
    800015b0:	fef43023          	sd	a5,-32(s0)
        if(pte & PTE_V) {
    800015b4:	fe043783          	ld	a5,-32(s0)
    800015b8:	8b85                	and	a5,a5,1
    800015ba:	cb95                	beqz	a5,800015ee <freewalk+0x5e>
            if((pte & (PTE_R|PTE_W|PTE_X)) == 0) {
    800015bc:	fe043783          	ld	a5,-32(s0)
    800015c0:	8bb9                	and	a5,a5,14
    800015c2:	e795                	bnez	a5,800015ee <freewalk+0x5e>
                uint64 child = PTE_PA(pte);
    800015c4:	fe043783          	ld	a5,-32(s0)
    800015c8:	83a9                	srl	a5,a5,0xa
    800015ca:	07b2                	sll	a5,a5,0xc
    800015cc:	fcf43c23          	sd	a5,-40(s0)
                freewalk((pagetable_t)child);
    800015d0:	fd843783          	ld	a5,-40(s0)
    800015d4:	853e                	mv	a0,a5
    800015d6:	00000097          	auipc	ra,0x0
    800015da:	fba080e7          	jalr	-70(ra) # 80001590 <freewalk>
                pagetable[i] = 0;
    800015de:	fec42783          	lw	a5,-20(s0)
    800015e2:	078e                	sll	a5,a5,0x3
    800015e4:	fc843703          	ld	a4,-56(s0)
    800015e8:	97ba                	add	a5,a5,a4
    800015ea:	0007b023          	sd	zero,0(a5)
    for(int i = 0; i < 512; i++) {
    800015ee:	fec42783          	lw	a5,-20(s0)
    800015f2:	2785                	addw	a5,a5,1
    800015f4:	fef42623          	sw	a5,-20(s0)
    800015f8:	fec42783          	lw	a5,-20(s0)
    800015fc:	0007871b          	sext.w	a4,a5
    80001600:	1ff00793          	li	a5,511
    80001604:	f8e7dfe3          	bge	a5,a4,800015a2 <freewalk+0x12>
    free_page((void*)pagetable);
    80001608:	fc843503          	ld	a0,-56(s0)
    8000160c:	00000097          	auipc	ra,0x0
    80001610:	d3e080e7          	jalr	-706(ra) # 8000134a <free_page>
}
    80001614:	0001                	nop
    80001616:	70e2                	ld	ra,56(sp)
    80001618:	7442                	ld	s0,48(sp)
    8000161a:	6121                	add	sp,sp,64
    8000161c:	8082                	ret

000000008000161e <destroy_pagetable>:
void destroy_pagetable(pagetable_t pagetable) {
    8000161e:	1101                	add	sp,sp,-32
    80001620:	ec06                	sd	ra,24(sp)
    80001622:	e822                	sd	s0,16(sp)
    80001624:	1000                	add	s0,sp,32
    80001626:	fea43423          	sd	a0,-24(s0)
    if(pagetable == 0)
    8000162a:	fe843783          	ld	a5,-24(s0)
    8000162e:	cb81                	beqz	a5,8000163e <destroy_pagetable+0x20>
    freewalk(pagetable);
    80001630:	fe843503          	ld	a0,-24(s0)
    80001634:	00000097          	auipc	ra,0x0
    80001638:	f5c080e7          	jalr	-164(ra) # 80001590 <freewalk>
    8000163c:	a011                	j	80001640 <destroy_pagetable+0x22>
        return;
    8000163e:	0001                	nop
}
    80001640:	60e2                	ld	ra,24(sp)
    80001642:	6442                	ld	s0,16(sp)
    80001644:	6105                	add	sp,sp,32
    80001646:	8082                	ret

0000000080001648 <walk_lookup>:
pte_t* walk_lookup(pagetable_t pagetable, uint64 va) {
    80001648:	7179                	add	sp,sp,-48
    8000164a:	f406                	sd	ra,40(sp)
    8000164c:	f022                	sd	s0,32(sp)
    8000164e:	1800                	add	s0,sp,48
    80001650:	fca43c23          	sd	a0,-40(s0)
    80001654:	fcb43823          	sd	a1,-48(s0)
    if(va >= (1L << 39))
    80001658:	fd043703          	ld	a4,-48(s0)
    8000165c:	57fd                	li	a5,-1
    8000165e:	83e5                	srl	a5,a5,0x19
    80001660:	00e7fa63          	bgeu	a5,a4,80001674 <walk_lookup+0x2c>
        panic("walk_lookup: va too large");
    80001664:	00005517          	auipc	a0,0x5
    80001668:	48c50513          	add	a0,a0,1164 # 80006af0 <userret+0xa8c>
    8000166c:	00000097          	auipc	ra,0x0
    80001670:	920080e7          	jalr	-1760(ra) # 80000f8c <panic>
    for(int level = 2; level > 0; level--) {
    80001674:	4789                	li	a5,2
    80001676:	fef42623          	sw	a5,-20(s0)
    8000167a:	a8a1                	j	800016d2 <walk_lookup+0x8a>
        pte_t *pte = &pagetable[PX(level, va)];
    8000167c:	fec42783          	lw	a5,-20(s0)
    80001680:	873e                	mv	a4,a5
    80001682:	87ba                	mv	a5,a4
    80001684:	0037979b          	sllw	a5,a5,0x3
    80001688:	9fb9                	addw	a5,a5,a4
    8000168a:	2781                	sext.w	a5,a5
    8000168c:	27b1                	addw	a5,a5,12
    8000168e:	2781                	sext.w	a5,a5
    80001690:	873e                	mv	a4,a5
    80001692:	fd043783          	ld	a5,-48(s0)
    80001696:	00e7d7b3          	srl	a5,a5,a4
    8000169a:	1ff7f793          	and	a5,a5,511
    8000169e:	078e                	sll	a5,a5,0x3
    800016a0:	fd843703          	ld	a4,-40(s0)
    800016a4:	97ba                	add	a5,a5,a4
    800016a6:	fef43023          	sd	a5,-32(s0)
        if(*pte & PTE_V) {
    800016aa:	fe043783          	ld	a5,-32(s0)
    800016ae:	639c                	ld	a5,0(a5)
    800016b0:	8b85                	and	a5,a5,1
    800016b2:	cb89                	beqz	a5,800016c4 <walk_lookup+0x7c>
            pagetable = (pagetable_t)PTE_PA(*pte);
    800016b4:	fe043783          	ld	a5,-32(s0)
    800016b8:	639c                	ld	a5,0(a5)
    800016ba:	83a9                	srl	a5,a5,0xa
    800016bc:	07b2                	sll	a5,a5,0xc
    800016be:	fcf43c23          	sd	a5,-40(s0)
    800016c2:	a019                	j	800016c8 <walk_lookup+0x80>
            return 0;
    800016c4:	4781                	li	a5,0
    800016c6:	a025                	j	800016ee <walk_lookup+0xa6>
    for(int level = 2; level > 0; level--) {
    800016c8:	fec42783          	lw	a5,-20(s0)
    800016cc:	37fd                	addw	a5,a5,-1
    800016ce:	fef42623          	sw	a5,-20(s0)
    800016d2:	fec42783          	lw	a5,-20(s0)
    800016d6:	2781                	sext.w	a5,a5
    800016d8:	faf042e3          	bgtz	a5,8000167c <walk_lookup+0x34>
    return &pagetable[PX(0, va)];
    800016dc:	fd043783          	ld	a5,-48(s0)
    800016e0:	83b1                	srl	a5,a5,0xc
    800016e2:	1ff7f793          	and	a5,a5,511
    800016e6:	078e                	sll	a5,a5,0x3
    800016e8:	fd843703          	ld	a4,-40(s0)
    800016ec:	97ba                	add	a5,a5,a4
}
    800016ee:	853e                	mv	a0,a5
    800016f0:	70a2                	ld	ra,40(sp)
    800016f2:	7402                	ld	s0,32(sp)
    800016f4:	6145                	add	sp,sp,48
    800016f6:	8082                	ret

00000000800016f8 <walk_create>:
pte_t* walk_create(pagetable_t pagetable, uint64 va) {
    800016f8:	7179                	add	sp,sp,-48
    800016fa:	f406                	sd	ra,40(sp)
    800016fc:	f022                	sd	s0,32(sp)
    800016fe:	1800                	add	s0,sp,48
    80001700:	fca43c23          	sd	a0,-40(s0)
    80001704:	fcb43823          	sd	a1,-48(s0)
    if(va >= (1L << 39))
    80001708:	fd043703          	ld	a4,-48(s0)
    8000170c:	57fd                	li	a5,-1
    8000170e:	83e5                	srl	a5,a5,0x19
    80001710:	00e7fa63          	bgeu	a5,a4,80001724 <walk_create+0x2c>
        panic("walk_create: va too large");
    80001714:	00005517          	auipc	a0,0x5
    80001718:	3fc50513          	add	a0,a0,1020 # 80006b10 <userret+0xaac>
    8000171c:	00000097          	auipc	ra,0x0
    80001720:	870080e7          	jalr	-1936(ra) # 80000f8c <panic>
    for(int level = 2; level > 0; level--) {
    80001724:	4789                	li	a5,2
    80001726:	fef42623          	sw	a5,-20(s0)
    8000172a:	a8b5                	j	800017a6 <walk_create+0xae>
        pte_t *pte = &pagetable[PX(level, va)];
    8000172c:	fec42783          	lw	a5,-20(s0)
    80001730:	873e                	mv	a4,a5
    80001732:	87ba                	mv	a5,a4
    80001734:	0037979b          	sllw	a5,a5,0x3
    80001738:	9fb9                	addw	a5,a5,a4
    8000173a:	2781                	sext.w	a5,a5
    8000173c:	27b1                	addw	a5,a5,12
    8000173e:	2781                	sext.w	a5,a5
    80001740:	873e                	mv	a4,a5
    80001742:	fd043783          	ld	a5,-48(s0)
    80001746:	00e7d7b3          	srl	a5,a5,a4
    8000174a:	1ff7f793          	and	a5,a5,511
    8000174e:	078e                	sll	a5,a5,0x3
    80001750:	fd843703          	ld	a4,-40(s0)
    80001754:	97ba                	add	a5,a5,a4
    80001756:	fef43023          	sd	a5,-32(s0)
        if(*pte & PTE_V) {
    8000175a:	fe043783          	ld	a5,-32(s0)
    8000175e:	639c                	ld	a5,0(a5)
    80001760:	8b85                	and	a5,a5,1
    80001762:	cb89                	beqz	a5,80001774 <walk_create+0x7c>
            pagetable = (pagetable_t)PTE_PA(*pte);
    80001764:	fe043783          	ld	a5,-32(s0)
    80001768:	639c                	ld	a5,0(a5)
    8000176a:	83a9                	srl	a5,a5,0xa
    8000176c:	07b2                	sll	a5,a5,0xc
    8000176e:	fcf43c23          	sd	a5,-40(s0)
    80001772:	a02d                	j	8000179c <walk_create+0xa4>
            pagetable = (pagetable_t)alloc_page();
    80001774:	00000097          	auipc	ra,0x0
    80001778:	b74080e7          	jalr	-1164(ra) # 800012e8 <alloc_page>
    8000177c:	fca43c23          	sd	a0,-40(s0)
            if(pagetable == 0)
    80001780:	fd843783          	ld	a5,-40(s0)
    80001784:	e399                	bnez	a5,8000178a <walk_create+0x92>
                return 0;
    80001786:	4781                	li	a5,0
    80001788:	a82d                	j	800017c2 <walk_create+0xca>
            *pte = PA2PTE(pagetable) | PTE_V;
    8000178a:	fd843783          	ld	a5,-40(s0)
    8000178e:	83b1                	srl	a5,a5,0xc
    80001790:	07aa                	sll	a5,a5,0xa
    80001792:	0017e713          	or	a4,a5,1
    80001796:	fe043783          	ld	a5,-32(s0)
    8000179a:	e398                	sd	a4,0(a5)
    for(int level = 2; level > 0; level--) {
    8000179c:	fec42783          	lw	a5,-20(s0)
    800017a0:	37fd                	addw	a5,a5,-1
    800017a2:	fef42623          	sw	a5,-20(s0)
    800017a6:	fec42783          	lw	a5,-20(s0)
    800017aa:	2781                	sext.w	a5,a5
    800017ac:	f8f040e3          	bgtz	a5,8000172c <walk_create+0x34>
    return &pagetable[PX(0, va)];
    800017b0:	fd043783          	ld	a5,-48(s0)
    800017b4:	83b1                	srl	a5,a5,0xc
    800017b6:	1ff7f793          	and	a5,a5,511
    800017ba:	078e                	sll	a5,a5,0x3
    800017bc:	fd843703          	ld	a4,-40(s0)
    800017c0:	97ba                	add	a5,a5,a4
}
    800017c2:	853e                	mv	a0,a5
    800017c4:	70a2                	ld	ra,40(sp)
    800017c6:	7402                	ld	s0,32(sp)
    800017c8:	6145                	add	sp,sp,48
    800017ca:	8082                	ret

00000000800017cc <map_page>:
int map_page(pagetable_t pagetable, uint64 va, uint64 pa, int perm) {
    800017cc:	7139                	add	sp,sp,-64
    800017ce:	fc06                	sd	ra,56(sp)
    800017d0:	f822                	sd	s0,48(sp)
    800017d2:	0080                	add	s0,sp,64
    800017d4:	fca43c23          	sd	a0,-40(s0)
    800017d8:	fcb43823          	sd	a1,-48(s0)
    800017dc:	fcc43423          	sd	a2,-56(s0)
    800017e0:	87b6                	mv	a5,a3
    800017e2:	fcf42223          	sw	a5,-60(s0)
    if(va % PGSIZE != 0)
    800017e6:	fd043703          	ld	a4,-48(s0)
    800017ea:	6785                	lui	a5,0x1
    800017ec:	17fd                	add	a5,a5,-1 # fff <_entry-0x7ffff001>
    800017ee:	8ff9                	and	a5,a5,a4
    800017f0:	cb89                	beqz	a5,80001802 <map_page+0x36>
        panic("map_page: va not page aligned");
    800017f2:	00005517          	auipc	a0,0x5
    800017f6:	33e50513          	add	a0,a0,830 # 80006b30 <userret+0xacc>
    800017fa:	fffff097          	auipc	ra,0xfffff
    800017fe:	792080e7          	jalr	1938(ra) # 80000f8c <panic>
    if(pa % PGSIZE != 0)
    80001802:	fc843703          	ld	a4,-56(s0)
    80001806:	6785                	lui	a5,0x1
    80001808:	17fd                	add	a5,a5,-1 # fff <_entry-0x7ffff001>
    8000180a:	8ff9                	and	a5,a5,a4
    8000180c:	cb89                	beqz	a5,8000181e <map_page+0x52>
        panic("map_page: pa not page aligned");
    8000180e:	00005517          	auipc	a0,0x5
    80001812:	34250513          	add	a0,a0,834 # 80006b50 <userret+0xaec>
    80001816:	fffff097          	auipc	ra,0xfffff
    8000181a:	776080e7          	jalr	1910(ra) # 80000f8c <panic>
    pte_t *pte = walk_create(pagetable, va);
    8000181e:	fd043583          	ld	a1,-48(s0)
    80001822:	fd843503          	ld	a0,-40(s0)
    80001826:	00000097          	auipc	ra,0x0
    8000182a:	ed2080e7          	jalr	-302(ra) # 800016f8 <walk_create>
    8000182e:	fea43423          	sd	a0,-24(s0)
    if(pte == 0)
    80001832:	fe843783          	ld	a5,-24(s0)
    80001836:	e399                	bnez	a5,8000183c <map_page+0x70>
        return -1;
    80001838:	57fd                	li	a5,-1
    8000183a:	a825                	j	80001872 <map_page+0xa6>
    if(*pte & PTE_V)
    8000183c:	fe843783          	ld	a5,-24(s0)
    80001840:	639c                	ld	a5,0(a5)
    80001842:	8b85                	and	a5,a5,1
    80001844:	cb89                	beqz	a5,80001856 <map_page+0x8a>
        panic("map_page: page already mapped");
    80001846:	00005517          	auipc	a0,0x5
    8000184a:	32a50513          	add	a0,a0,810 # 80006b70 <userret+0xb0c>
    8000184e:	fffff097          	auipc	ra,0xfffff
    80001852:	73e080e7          	jalr	1854(ra) # 80000f8c <panic>
    *pte = PA2PTE(pa) | perm | PTE_V;
    80001856:	fc843783          	ld	a5,-56(s0)
    8000185a:	83b1                	srl	a5,a5,0xc
    8000185c:	00a79713          	sll	a4,a5,0xa
    80001860:	fc442783          	lw	a5,-60(s0)
    80001864:	8fd9                	or	a5,a5,a4
    80001866:	0017e713          	or	a4,a5,1
    8000186a:	fe843783          	ld	a5,-24(s0)
    8000186e:	e398                	sd	a4,0(a5)
    return 0;
    80001870:	4781                	li	a5,0
}
    80001872:	853e                	mv	a0,a5
    80001874:	70e2                	ld	ra,56(sp)
    80001876:	7442                	ld	s0,48(sp)
    80001878:	6121                	add	sp,sp,64
    8000187a:	8082                	ret

000000008000187c <map_region>:
int map_region(pagetable_t pagetable, uint64 va, uint64 pa, uint64 size, int perm) {
    8000187c:	715d                	add	sp,sp,-80
    8000187e:	e486                	sd	ra,72(sp)
    80001880:	e0a2                	sd	s0,64(sp)
    80001882:	0880                	add	s0,sp,80
    80001884:	fca43c23          	sd	a0,-40(s0)
    80001888:	fcb43823          	sd	a1,-48(s0)
    8000188c:	fcc43423          	sd	a2,-56(s0)
    80001890:	fcd43023          	sd	a3,-64(s0)
    80001894:	87ba                	mv	a5,a4
    80001896:	faf42e23          	sw	a5,-68(s0)
    if(size == 0)
    8000189a:	fc043783          	ld	a5,-64(s0)
    8000189e:	e399                	bnez	a5,800018a4 <map_region+0x28>
        return 0;
    800018a0:	4781                	li	a5,0
    800018a2:	a885                	j	80001912 <map_region+0x96>
    a = PGROUNDDOWN(va);
    800018a4:	fd043703          	ld	a4,-48(s0)
    800018a8:	77fd                	lui	a5,0xfffff
    800018aa:	8ff9                	and	a5,a5,a4
    800018ac:	fef43423          	sd	a5,-24(s0)
    last = PGROUNDDOWN(va + size - 1);
    800018b0:	fd043703          	ld	a4,-48(s0)
    800018b4:	fc043783          	ld	a5,-64(s0)
    800018b8:	97ba                	add	a5,a5,a4
    800018ba:	fff78713          	add	a4,a5,-1 # ffffffffffffefff <end+0xffffffff7ffecfff>
    800018be:	77fd                	lui	a5,0xfffff
    800018c0:	8ff9                	and	a5,a5,a4
    800018c2:	fef43023          	sd	a5,-32(s0)
        if(map_page(pagetable, a, pa, perm) != 0)
    800018c6:	fbc42783          	lw	a5,-68(s0)
    800018ca:	86be                	mv	a3,a5
    800018cc:	fc843603          	ld	a2,-56(s0)
    800018d0:	fe843583          	ld	a1,-24(s0)
    800018d4:	fd843503          	ld	a0,-40(s0)
    800018d8:	00000097          	auipc	ra,0x0
    800018dc:	ef4080e7          	jalr	-268(ra) # 800017cc <map_page>
    800018e0:	87aa                	mv	a5,a0
    800018e2:	c399                	beqz	a5,800018e8 <map_region+0x6c>
            return -1;
    800018e4:	57fd                	li	a5,-1
    800018e6:	a035                	j	80001912 <map_region+0x96>
        if(a == last)
    800018e8:	fe843703          	ld	a4,-24(s0)
    800018ec:	fe043783          	ld	a5,-32(s0)
    800018f0:	00f70f63          	beq	a4,a5,8000190e <map_region+0x92>
        a += PGSIZE;
    800018f4:	fe843703          	ld	a4,-24(s0)
    800018f8:	6785                	lui	a5,0x1
    800018fa:	97ba                	add	a5,a5,a4
    800018fc:	fef43423          	sd	a5,-24(s0)
        pa += PGSIZE;
    80001900:	fc843703          	ld	a4,-56(s0)
    80001904:	6785                	lui	a5,0x1
    80001906:	97ba                	add	a5,a5,a4
    80001908:	fcf43423          	sd	a5,-56(s0)
        if(map_page(pagetable, a, pa, perm) != 0)
    8000190c:	bf6d                	j	800018c6 <map_region+0x4a>
            break;
    8000190e:	0001                	nop
    return 0;
    80001910:	4781                	li	a5,0
}
    80001912:	853e                	mv	a0,a5
    80001914:	60a6                	ld	ra,72(sp)
    80001916:	6406                	ld	s0,64(sp)
    80001918:	6161                	add	sp,sp,80
    8000191a:	8082                	ret

000000008000191c <kvminit>:
{
    8000191c:	1141                	add	sp,sp,-16
    8000191e:	e406                	sd	ra,8(sp)
    80001920:	e022                	sd	s0,0(sp)
    80001922:	0800                	add	s0,sp,16
    printf("Setting up kernel page table...\n");
    80001924:	00005517          	auipc	a0,0x5
    80001928:	26c50513          	add	a0,a0,620 # 80006b90 <userret+0xb2c>
    8000192c:	fffff097          	auipc	ra,0xfffff
    80001930:	2ba080e7          	jalr	698(ra) # 80000be6 <printf>
    
    kernel_pagetable = create_pagetable();
    80001934:	00000097          	auipc	ra,0x0
    80001938:	c30080e7          	jalr	-976(ra) # 80001564 <create_pagetable>
    8000193c:	872a                	mv	a4,a0
    8000193e:	00008797          	auipc	a5,0x8
    80001942:	6ca78793          	add	a5,a5,1738 # 8000a008 <kernel_pagetable>
    80001946:	e398                	sd	a4,0(a5)
    if(kernel_pagetable == 0) {
    80001948:	00008797          	auipc	a5,0x8
    8000194c:	6c078793          	add	a5,a5,1728 # 8000a008 <kernel_pagetable>
    80001950:	639c                	ld	a5,0(a5)
    80001952:	eb89                	bnez	a5,80001964 <kvminit+0x48>
        panic("kvminit: create_pagetable");
    80001954:	00005517          	auipc	a0,0x5
    80001958:	26450513          	add	a0,a0,612 # 80006bb8 <userret+0xb54>
    8000195c:	fffff097          	auipc	ra,0xfffff
    80001960:	630080e7          	jalr	1584(ra) # 80000f8c <panic>
    }
    
    // 映射内核代码段
    printf("Mapping kernel text: %p - %p\n", 
    80001964:	00004617          	auipc	a2,0x4
    80001968:	69c60613          	add	a2,a2,1692 # 80006000 <etext>
    8000196c:	4785                	li	a5,1
    8000196e:	01f79593          	sll	a1,a5,0x1f
    80001972:	00005517          	auipc	a0,0x5
    80001976:	26650513          	add	a0,a0,614 # 80006bd8 <userret+0xb74>
    8000197a:	fffff097          	auipc	ra,0xfffff
    8000197e:	26c080e7          	jalr	620(ra) # 80000be6 <printf>
           (void*)KERNBASE, (void*)etext);
    if(map_region(kernel_pagetable, KERNBASE, KERNBASE,
    80001982:	00008797          	auipc	a5,0x8
    80001986:	68678793          	add	a5,a5,1670 # 8000a008 <kernel_pagetable>
    8000198a:	6388                	ld	a0,0(a5)
                  (uint64)etext - KERNBASE, PTE_R | PTE_X) != 0) {
    8000198c:	00004717          	auipc	a4,0x4
    80001990:	67470713          	add	a4,a4,1652 # 80006000 <etext>
    if(map_region(kernel_pagetable, KERNBASE, KERNBASE,
    80001994:	800007b7          	lui	a5,0x80000
    80001998:	97ba                	add	a5,a5,a4
    8000199a:	4729                	li	a4,10
    8000199c:	86be                	mv	a3,a5
    8000199e:	4785                	li	a5,1
    800019a0:	01f79613          	sll	a2,a5,0x1f
    800019a4:	4785                	li	a5,1
    800019a6:	01f79593          	sll	a1,a5,0x1f
    800019aa:	00000097          	auipc	ra,0x0
    800019ae:	ed2080e7          	jalr	-302(ra) # 8000187c <map_region>
    800019b2:	87aa                	mv	a5,a0
    800019b4:	cb89                	beqz	a5,800019c6 <kvminit+0xaa>
        panic("kvminit: map text");
    800019b6:	00005517          	auipc	a0,0x5
    800019ba:	24250513          	add	a0,a0,578 # 80006bf8 <userret+0xb94>
    800019be:	fffff097          	auipc	ra,0xfffff
    800019c2:	5ce080e7          	jalr	1486(ra) # 80000f8c <panic>
    }
    
    // 映射内核数据段和剩余物理内存
    printf("Mapping kernel data: %p - %p\n",
    800019c6:	47c5                	li	a5,17
    800019c8:	01b79613          	sll	a2,a5,0x1b
    800019cc:	00004597          	auipc	a1,0x4
    800019d0:	63458593          	add	a1,a1,1588 # 80006000 <etext>
    800019d4:	00005517          	auipc	a0,0x5
    800019d8:	23c50513          	add	a0,a0,572 # 80006c10 <userret+0xbac>
    800019dc:	fffff097          	auipc	ra,0xfffff
    800019e0:	20a080e7          	jalr	522(ra) # 80000be6 <printf>
           (void*)((uint64)etext), (void*)PHYSTOP);
    if(map_region(kernel_pagetable, (uint64)etext, (uint64)etext,
    800019e4:	00008797          	auipc	a5,0x8
    800019e8:	62478793          	add	a5,a5,1572 # 8000a008 <kernel_pagetable>
    800019ec:	6388                	ld	a0,0(a5)
    800019ee:	00004597          	auipc	a1,0x4
    800019f2:	61258593          	add	a1,a1,1554 # 80006000 <etext>
    800019f6:	00004617          	auipc	a2,0x4
    800019fa:	60a60613          	add	a2,a2,1546 # 80006000 <etext>
                  PHYSTOP - (uint64)etext, PTE_R | PTE_W) != 0) {
    800019fe:	00004797          	auipc	a5,0x4
    80001a02:	60278793          	add	a5,a5,1538 # 80006000 <etext>
    if(map_region(kernel_pagetable, (uint64)etext, (uint64)etext,
    80001a06:	4745                	li	a4,17
    80001a08:	076e                	sll	a4,a4,0x1b
    80001a0a:	40f707b3          	sub	a5,a4,a5
    80001a0e:	4719                	li	a4,6
    80001a10:	86be                	mv	a3,a5
    80001a12:	00000097          	auipc	ra,0x0
    80001a16:	e6a080e7          	jalr	-406(ra) # 8000187c <map_region>
    80001a1a:	87aa                	mv	a5,a0
    80001a1c:	cb89                	beqz	a5,80001a2e <kvminit+0x112>
        panic("kvminit: map data");
    80001a1e:	00005517          	auipc	a0,0x5
    80001a22:	21250513          	add	a0,a0,530 # 80006c30 <userret+0xbcc>
    80001a26:	fffff097          	auipc	ra,0xfffff
    80001a2a:	566080e7          	jalr	1382(ra) # 80000f8c <panic>
    }
    
    // 映射 UART
    printf("Mapping UART: %p\n", (void*)UART0);
    80001a2e:	100005b7          	lui	a1,0x10000
    80001a32:	00005517          	auipc	a0,0x5
    80001a36:	21650513          	add	a0,a0,534 # 80006c48 <userret+0xbe4>
    80001a3a:	fffff097          	auipc	ra,0xfffff
    80001a3e:	1ac080e7          	jalr	428(ra) # 80000be6 <printf>
    if(map_page(kernel_pagetable, UART0, UART0,
    80001a42:	00008797          	auipc	a5,0x8
    80001a46:	5c678793          	add	a5,a5,1478 # 8000a008 <kernel_pagetable>
    80001a4a:	639c                	ld	a5,0(a5)
    80001a4c:	4699                	li	a3,6
    80001a4e:	10000637          	lui	a2,0x10000
    80001a52:	100005b7          	lui	a1,0x10000
    80001a56:	853e                	mv	a0,a5
    80001a58:	00000097          	auipc	ra,0x0
    80001a5c:	d74080e7          	jalr	-652(ra) # 800017cc <map_page>
    80001a60:	87aa                	mv	a5,a0
    80001a62:	cb89                	beqz	a5,80001a74 <kvminit+0x158>
                PTE_R | PTE_W) != 0) {
        panic("kvminit: map uart");
    80001a64:	00005517          	auipc	a0,0x5
    80001a68:	1fc50513          	add	a0,a0,508 # 80006c60 <userret+0xbfc>
    80001a6c:	fffff097          	auipc	ra,0xfffff
    80001a70:	520080e7          	jalr	1312(ra) # 80000f8c <panic>
    }
    
    // 映射 trampoline（关键）
    extern char trampoline[];
    printf("Mapping trampoline: %p -> %p\n", 
    80001a74:	00004617          	auipc	a2,0x4
    80001a78:	58c60613          	add	a2,a2,1420 # 80006000 <etext>
    80001a7c:	040007b7          	lui	a5,0x4000
    80001a80:	17fd                	add	a5,a5,-1 # 3ffffff <_entry-0x7c000001>
    80001a82:	00c79593          	sll	a1,a5,0xc
    80001a86:	00005517          	auipc	a0,0x5
    80001a8a:	1f250513          	add	a0,a0,498 # 80006c78 <userret+0xc14>
    80001a8e:	fffff097          	auipc	ra,0xfffff
    80001a92:	158080e7          	jalr	344(ra) # 80000be6 <printf>
           (void*)TRAMPOLINE, (void*)trampoline);
    if(map_page(kernel_pagetable, TRAMPOLINE, (uint64)trampoline,
    80001a96:	00008797          	auipc	a5,0x8
    80001a9a:	57278793          	add	a5,a5,1394 # 8000a008 <kernel_pagetable>
    80001a9e:	6398                	ld	a4,0(a5)
    80001aa0:	00004797          	auipc	a5,0x4
    80001aa4:	56078793          	add	a5,a5,1376 # 80006000 <etext>
    80001aa8:	46a9                	li	a3,10
    80001aaa:	863e                	mv	a2,a5
    80001aac:	040007b7          	lui	a5,0x4000
    80001ab0:	17fd                	add	a5,a5,-1 # 3ffffff <_entry-0x7c000001>
    80001ab2:	00c79593          	sll	a1,a5,0xc
    80001ab6:	853a                	mv	a0,a4
    80001ab8:	00000097          	auipc	ra,0x0
    80001abc:	d14080e7          	jalr	-748(ra) # 800017cc <map_page>
    80001ac0:	87aa                	mv	a5,a0
    80001ac2:	cb89                	beqz	a5,80001ad4 <kvminit+0x1b8>
                PTE_R | PTE_X) != 0) {
        panic("kvminit: map trampoline");
    80001ac4:	00005517          	auipc	a0,0x5
    80001ac8:	1d450513          	add	a0,a0,468 # 80006c98 <userret+0xc34>
    80001acc:	fffff097          	auipc	ra,0xfffff
    80001ad0:	4c0080e7          	jalr	1216(ra) # 80000f8c <panic>
    }
    
    printf("Kernel page table setup complete\n");
    80001ad4:	00005517          	auipc	a0,0x5
    80001ad8:	1dc50513          	add	a0,a0,476 # 80006cb0 <userret+0xc4c>
    80001adc:	fffff097          	auipc	ra,0xfffff
    80001ae0:	10a080e7          	jalr	266(ra) # 80000be6 <printf>
}
    80001ae4:	0001                	nop
    80001ae6:	60a2                	ld	ra,8(sp)
    80001ae8:	6402                	ld	s0,0(sp)
    80001aea:	0141                	add	sp,sp,16
    80001aec:	8082                	ret

0000000080001aee <kvminithart>:

// 激活内核页表
void kvminithart(void) {
    80001aee:	1141                	add	sp,sp,-16
    80001af0:	e406                	sd	ra,8(sp)
    80001af2:	e022                	sd	s0,0(sp)
    80001af4:	0800                	add	s0,sp,16
    w_satp(MAKE_SATP(kernel_pagetable));
    80001af6:	00008797          	auipc	a5,0x8
    80001afa:	51278793          	add	a5,a5,1298 # 8000a008 <kernel_pagetable>
    80001afe:	639c                	ld	a5,0(a5)
    80001b00:	00c7d713          	srl	a4,a5,0xc
    80001b04:	57fd                	li	a5,-1
    80001b06:	17fe                	sll	a5,a5,0x3f
    80001b08:	8fd9                	or	a5,a5,a4
    80001b0a:	18079073          	csrw	satp,a5
    sfence_vma();
    80001b0e:	00000097          	auipc	ra,0x0
    80001b12:	a44080e7          	jalr	-1468(ra) # 80001552 <sfence_vma>
    printf("Virtual memory enabled!\n");
    80001b16:	00005517          	auipc	a0,0x5
    80001b1a:	1c250513          	add	a0,a0,450 # 80006cd8 <userret+0xc74>
    80001b1e:	fffff097          	auipc	ra,0xfffff
    80001b22:	0c8080e7          	jalr	200(ra) # 80000be6 <printf>
}
    80001b26:	0001                	nop
    80001b28:	60a2                	ld	ra,8(sp)
    80001b2a:	6402                	ld	s0,0(sp)
    80001b2c:	0141                	add	sp,sp,16
    80001b2e:	8082                	ret

0000000080001b30 <dump_pagetable>:

// 调试用：打印页表
void dump_pagetable(pagetable_t pagetable, int level) {
    80001b30:	7179                	add	sp,sp,-48
    80001b32:	f406                	sd	ra,40(sp)
    80001b34:	f022                	sd	s0,32(sp)
    80001b36:	1800                	add	s0,sp,48
    80001b38:	fca43c23          	sd	a0,-40(s0)
    80001b3c:	87ae                	mv	a5,a1
    80001b3e:	fcf42a23          	sw	a5,-44(s0)
    if(level > 2) return;
    80001b42:	fd442783          	lw	a5,-44(s0)
    80001b46:	0007871b          	sext.w	a4,a5
    80001b4a:	4789                	li	a5,2
    80001b4c:	10e7c163          	blt	a5,a4,80001c4e <dump_pagetable+0x11e>
    
    printf("Page table at level %d:\n", level);
    80001b50:	fd442783          	lw	a5,-44(s0)
    80001b54:	85be                	mv	a1,a5
    80001b56:	00005517          	auipc	a0,0x5
    80001b5a:	1a250513          	add	a0,a0,418 # 80006cf8 <userret+0xc94>
    80001b5e:	fffff097          	auipc	ra,0xfffff
    80001b62:	088080e7          	jalr	136(ra) # 80000be6 <printf>
    int count = 0;
    80001b66:	fe042623          	sw	zero,-20(s0)
    for(int i = 0; i < 512; i++) {
    80001b6a:	fe042423          	sw	zero,-24(s0)
    80001b6e:	a0f9                	j	80001c3c <dump_pagetable+0x10c>
        pte_t pte = pagetable[i];
    80001b70:	fe842783          	lw	a5,-24(s0)
    80001b74:	078e                	sll	a5,a5,0x3
    80001b76:	fd843703          	ld	a4,-40(s0)
    80001b7a:	97ba                	add	a5,a5,a4
    80001b7c:	639c                	ld	a5,0(a5)
    80001b7e:	fef43023          	sd	a5,-32(s0)
        if(pte & PTE_V) {
    80001b82:	fe043783          	ld	a5,-32(s0)
    80001b86:	8b85                	and	a5,a5,1
    80001b88:	c7cd                	beqz	a5,80001c32 <dump_pagetable+0x102>
            printf("  [%d]: %p", i, (void*)pte);
    80001b8a:	fe043703          	ld	a4,-32(s0)
    80001b8e:	fe842783          	lw	a5,-24(s0)
    80001b92:	863a                	mv	a2,a4
    80001b94:	85be                	mv	a1,a5
    80001b96:	00005517          	auipc	a0,0x5
    80001b9a:	18250513          	add	a0,a0,386 # 80006d18 <userret+0xcb4>
    80001b9e:	fffff097          	auipc	ra,0xfffff
    80001ba2:	048080e7          	jalr	72(ra) # 80000be6 <printf>
            if(pte & PTE_R) printf(" R");
    80001ba6:	fe043783          	ld	a5,-32(s0)
    80001baa:	8b89                	and	a5,a5,2
    80001bac:	cb89                	beqz	a5,80001bbe <dump_pagetable+0x8e>
    80001bae:	00005517          	auipc	a0,0x5
    80001bb2:	17a50513          	add	a0,a0,378 # 80006d28 <userret+0xcc4>
    80001bb6:	fffff097          	auipc	ra,0xfffff
    80001bba:	030080e7          	jalr	48(ra) # 80000be6 <printf>
            if(pte & PTE_W) printf(" W");
    80001bbe:	fe043783          	ld	a5,-32(s0)
    80001bc2:	8b91                	and	a5,a5,4
    80001bc4:	cb89                	beqz	a5,80001bd6 <dump_pagetable+0xa6>
    80001bc6:	00005517          	auipc	a0,0x5
    80001bca:	16a50513          	add	a0,a0,362 # 80006d30 <userret+0xccc>
    80001bce:	fffff097          	auipc	ra,0xfffff
    80001bd2:	018080e7          	jalr	24(ra) # 80000be6 <printf>
            if(pte & PTE_X) printf(" X");
    80001bd6:	fe043783          	ld	a5,-32(s0)
    80001bda:	8ba1                	and	a5,a5,8
    80001bdc:	cb89                	beqz	a5,80001bee <dump_pagetable+0xbe>
    80001bde:	00005517          	auipc	a0,0x5
    80001be2:	15a50513          	add	a0,a0,346 # 80006d38 <userret+0xcd4>
    80001be6:	fffff097          	auipc	ra,0xfffff
    80001bea:	000080e7          	jalr	ra # 80000be6 <printf>
            printf(" -> PA %p\n", (void*)PTE_PA(pte));
    80001bee:	fe043783          	ld	a5,-32(s0)
    80001bf2:	83a9                	srl	a5,a5,0xa
    80001bf4:	07b2                	sll	a5,a5,0xc
    80001bf6:	85be                	mv	a1,a5
    80001bf8:	00005517          	auipc	a0,0x5
    80001bfc:	14850513          	add	a0,a0,328 # 80006d40 <userret+0xcdc>
    80001c00:	fffff097          	auipc	ra,0xfffff
    80001c04:	fe6080e7          	jalr	-26(ra) # 80000be6 <printf>
            count++;
    80001c08:	fec42783          	lw	a5,-20(s0)
    80001c0c:	2785                	addw	a5,a5,1
    80001c0e:	fef42623          	sw	a5,-20(s0)
            if(count > 10) {
    80001c12:	fec42783          	lw	a5,-20(s0)
    80001c16:	0007871b          	sext.w	a4,a5
    80001c1a:	47a9                	li	a5,10
    80001c1c:	00e7db63          	bge	a5,a4,80001c32 <dump_pagetable+0x102>
                printf("  ... (more entries)\n");
    80001c20:	00005517          	auipc	a0,0x5
    80001c24:	13050513          	add	a0,a0,304 # 80006d50 <userret+0xcec>
    80001c28:	fffff097          	auipc	ra,0xfffff
    80001c2c:	fbe080e7          	jalr	-66(ra) # 80000be6 <printf>
                break;
    80001c30:	a005                	j	80001c50 <dump_pagetable+0x120>
    for(int i = 0; i < 512; i++) {
    80001c32:	fe842783          	lw	a5,-24(s0)
    80001c36:	2785                	addw	a5,a5,1
    80001c38:	fef42423          	sw	a5,-24(s0)
    80001c3c:	fe842783          	lw	a5,-24(s0)
    80001c40:	0007871b          	sext.w	a4,a5
    80001c44:	1ff00793          	li	a5,511
    80001c48:	f2e7d4e3          	bge	a5,a4,80001b70 <dump_pagetable+0x40>
    80001c4c:	a011                	j	80001c50 <dump_pagetable+0x120>
    if(level > 2) return;
    80001c4e:	0001                	nop
            }
        }
    }
}
    80001c50:	70a2                	ld	ra,40(sp)
    80001c52:	7402                	ld	s0,32(sp)
    80001c54:	6145                	add	sp,sp,48
    80001c56:	8082                	ret

0000000080001c58 <check_page_permission>:

// 权限检查
int check_page_permission(uint64 addr, int access_type) {
    80001c58:	7179                	add	sp,sp,-48
    80001c5a:	f406                	sd	ra,40(sp)
    80001c5c:	f022                	sd	s0,32(sp)
    80001c5e:	1800                	add	s0,sp,48
    80001c60:	fca43c23          	sd	a0,-40(s0)
    80001c64:	87ae                	mv	a5,a1
    80001c66:	fcf42a23          	sw	a5,-44(s0)
    pte_t *pte = walk_lookup(kernel_pagetable, addr);
    80001c6a:	00008797          	auipc	a5,0x8
    80001c6e:	39e78793          	add	a5,a5,926 # 8000a008 <kernel_pagetable>
    80001c72:	639c                	ld	a5,0(a5)
    80001c74:	fd843583          	ld	a1,-40(s0)
    80001c78:	853e                	mv	a0,a5
    80001c7a:	00000097          	auipc	ra,0x0
    80001c7e:	9ce080e7          	jalr	-1586(ra) # 80001648 <walk_lookup>
    80001c82:	fea43423          	sd	a0,-24(s0)
    
    if(pte == 0 || !(*pte & PTE_V)) {
    80001c86:	fe843783          	ld	a5,-24(s0)
    80001c8a:	c791                	beqz	a5,80001c96 <check_page_permission+0x3e>
    80001c8c:	fe843783          	ld	a5,-24(s0)
    80001c90:	639c                	ld	a5,0(a5)
    80001c92:	8b85                	and	a5,a5,1
    80001c94:	ef91                	bnez	a5,80001cb0 <check_page_permission+0x58>
        printf("Permission check: Address %p not mapped\n", (void*)addr);
    80001c96:	fd843783          	ld	a5,-40(s0)
    80001c9a:	85be                	mv	a1,a5
    80001c9c:	00005517          	auipc	a0,0x5
    80001ca0:	0cc50513          	add	a0,a0,204 # 80006d68 <userret+0xd04>
    80001ca4:	fffff097          	auipc	ra,0xfffff
    80001ca8:	f42080e7          	jalr	-190(ra) # 80000be6 <printf>
        return 0;
    80001cac:	4781                	li	a5,0
    80001cae:	a079                	j	80001d3c <check_page_permission+0xe4>
    }
    
    if((access_type & ACCESS_READ) && !(*pte & PTE_R)) {
    80001cb0:	fd442783          	lw	a5,-44(s0)
    80001cb4:	8b85                	and	a5,a5,1
    80001cb6:	2781                	sext.w	a5,a5
    80001cb8:	c39d                	beqz	a5,80001cde <check_page_permission+0x86>
    80001cba:	fe843783          	ld	a5,-24(s0)
    80001cbe:	639c                	ld	a5,0(a5)
    80001cc0:	8b89                	and	a5,a5,2
    80001cc2:	ef91                	bnez	a5,80001cde <check_page_permission+0x86>
        printf("Permission check: No read permission for %p\n", (void*)addr);
    80001cc4:	fd843783          	ld	a5,-40(s0)
    80001cc8:	85be                	mv	a1,a5
    80001cca:	00005517          	auipc	a0,0x5
    80001cce:	0ce50513          	add	a0,a0,206 # 80006d98 <userret+0xd34>
    80001cd2:	fffff097          	auipc	ra,0xfffff
    80001cd6:	f14080e7          	jalr	-236(ra) # 80000be6 <printf>
        return 0;
    80001cda:	4781                	li	a5,0
    80001cdc:	a085                	j	80001d3c <check_page_permission+0xe4>
    }
    
    if((access_type & ACCESS_WRITE) && !(*pte & PTE_W)) {
    80001cde:	fd442783          	lw	a5,-44(s0)
    80001ce2:	8b89                	and	a5,a5,2
    80001ce4:	2781                	sext.w	a5,a5
    80001ce6:	c39d                	beqz	a5,80001d0c <check_page_permission+0xb4>
    80001ce8:	fe843783          	ld	a5,-24(s0)
    80001cec:	639c                	ld	a5,0(a5)
    80001cee:	8b91                	and	a5,a5,4
    80001cf0:	ef91                	bnez	a5,80001d0c <check_page_permission+0xb4>
        printf("Permission check: No write permission for %p\n", (void*)addr);
    80001cf2:	fd843783          	ld	a5,-40(s0)
    80001cf6:	85be                	mv	a1,a5
    80001cf8:	00005517          	auipc	a0,0x5
    80001cfc:	0d050513          	add	a0,a0,208 # 80006dc8 <userret+0xd64>
    80001d00:	fffff097          	auipc	ra,0xfffff
    80001d04:	ee6080e7          	jalr	-282(ra) # 80000be6 <printf>
        return 0;
    80001d08:	4781                	li	a5,0
    80001d0a:	a80d                	j	80001d3c <check_page_permission+0xe4>
    }
    
    if((access_type & ACCESS_EXEC) && !(*pte & PTE_X)) {
    80001d0c:	fd442783          	lw	a5,-44(s0)
    80001d10:	8b91                	and	a5,a5,4
    80001d12:	2781                	sext.w	a5,a5
    80001d14:	c39d                	beqz	a5,80001d3a <check_page_permission+0xe2>
    80001d16:	fe843783          	ld	a5,-24(s0)
    80001d1a:	639c                	ld	a5,0(a5)
    80001d1c:	8ba1                	and	a5,a5,8
    80001d1e:	ef91                	bnez	a5,80001d3a <check_page_permission+0xe2>
        printf("Permission check: No execute permission for %p\n", (void*)addr);
    80001d20:	fd843783          	ld	a5,-40(s0)
    80001d24:	85be                	mv	a1,a5
    80001d26:	00005517          	auipc	a0,0x5
    80001d2a:	0d250513          	add	a0,a0,210 # 80006df8 <userret+0xd94>
    80001d2e:	fffff097          	auipc	ra,0xfffff
    80001d32:	eb8080e7          	jalr	-328(ra) # 80000be6 <printf>
        return 0;
    80001d36:	4781                	li	a5,0
    80001d38:	a011                	j	80001d3c <check_page_permission+0xe4>
    }
    
    return 1;
    80001d3a:	4785                	li	a5,1
}
    80001d3c:	853e                	mv	a0,a5
    80001d3e:	70a2                	ld	ra,40(sp)
    80001d40:	7402                	ld	s0,32(sp)
    80001d42:	6145                	add	sp,sp,48
    80001d44:	8082                	ret

0000000080001d46 <copyin>:

// ==================== 用户空间拷贝函数 ====================

// 从用户空间拷贝到内核缓冲区
int copyin(pagetable_t pagetable, char *dst, uint64 srcva, uint64 len)
{
    80001d46:	715d                	add	sp,sp,-80
    80001d48:	e486                	sd	ra,72(sp)
    80001d4a:	e0a2                	sd	s0,64(sp)
    80001d4c:	0880                	add	s0,sp,80
    80001d4e:	fca43423          	sd	a0,-56(s0)
    80001d52:	fcb43023          	sd	a1,-64(s0)
    80001d56:	fac43c23          	sd	a2,-72(s0)
    80001d5a:	fad43823          	sd	a3,-80(s0)
    while(len > 0){
    80001d5e:	a0e1                	j	80001e26 <copyin+0xe0>
        uint64 va0 = PGROUNDDOWN(srcva);
    80001d60:	fb843703          	ld	a4,-72(s0)
    80001d64:	77fd                	lui	a5,0xfffff
    80001d66:	8ff9                	and	a5,a5,a4
    80001d68:	fef43023          	sd	a5,-32(s0)
        pte_t *pte = walk_lookup(pagetable, va0);
    80001d6c:	fe043583          	ld	a1,-32(s0)
    80001d70:	fc843503          	ld	a0,-56(s0)
    80001d74:	00000097          	auipc	ra,0x0
    80001d78:	8d4080e7          	jalr	-1836(ra) # 80001648 <walk_lookup>
    80001d7c:	fca43c23          	sd	a0,-40(s0)
        if(pte == 0 || (*pte & PTE_V) == 0 || (*pte & PTE_U) == 0)
    80001d80:	fd843783          	ld	a5,-40(s0)
    80001d84:	cb99                	beqz	a5,80001d9a <copyin+0x54>
    80001d86:	fd843783          	ld	a5,-40(s0)
    80001d8a:	639c                	ld	a5,0(a5)
    80001d8c:	8b85                	and	a5,a5,1
    80001d8e:	c791                	beqz	a5,80001d9a <copyin+0x54>
    80001d90:	fd843783          	ld	a5,-40(s0)
    80001d94:	639c                	ld	a5,0(a5)
    80001d96:	8bc1                	and	a5,a5,16
    80001d98:	e399                	bnez	a5,80001d9e <copyin+0x58>
            return -1;
    80001d9a:	57fd                	li	a5,-1
    80001d9c:	a849                	j	80001e2e <copyin+0xe8>
        uint64 pa0 = PTE_PA(*pte);
    80001d9e:	fd843783          	ld	a5,-40(s0)
    80001da2:	639c                	ld	a5,0(a5)
    80001da4:	83a9                	srl	a5,a5,0xa
    80001da6:	07b2                	sll	a5,a5,0xc
    80001da8:	fcf43823          	sd	a5,-48(s0)

        uint64 n = PGSIZE - (srcva - va0);
    80001dac:	fe043703          	ld	a4,-32(s0)
    80001db0:	fb843783          	ld	a5,-72(s0)
    80001db4:	8f1d                	sub	a4,a4,a5
    80001db6:	6785                	lui	a5,0x1
    80001db8:	97ba                	add	a5,a5,a4
    80001dba:	fef43423          	sd	a5,-24(s0)
        if(n > len)
    80001dbe:	fe843703          	ld	a4,-24(s0)
    80001dc2:	fb043783          	ld	a5,-80(s0)
    80001dc6:	00e7f663          	bgeu	a5,a4,80001dd2 <copyin+0x8c>
            n = len;
    80001dca:	fb043783          	ld	a5,-80(s0)
    80001dce:	fef43423          	sd	a5,-24(s0)

        memcpy(dst, (void*)(pa0 + (srcva - va0)), n);
    80001dd2:	fb843703          	ld	a4,-72(s0)
    80001dd6:	fe043783          	ld	a5,-32(s0)
    80001dda:	8f1d                	sub	a4,a4,a5
    80001ddc:	fd043783          	ld	a5,-48(s0)
    80001de0:	97ba                	add	a5,a5,a4
    80001de2:	873e                	mv	a4,a5
    80001de4:	fe843783          	ld	a5,-24(s0)
    80001de8:	2781                	sext.w	a5,a5
    80001dea:	863e                	mv	a2,a5
    80001dec:	85ba                	mv	a1,a4
    80001dee:	fc043503          	ld	a0,-64(s0)
    80001df2:	fffff097          	auipc	ra,0xfffff
    80001df6:	37c080e7          	jalr	892(ra) # 8000116e <memcpy>

        len   -= n;
    80001dfa:	fb043703          	ld	a4,-80(s0)
    80001dfe:	fe843783          	ld	a5,-24(s0)
    80001e02:	40f707b3          	sub	a5,a4,a5
    80001e06:	faf43823          	sd	a5,-80(s0)
        dst   += n;
    80001e0a:	fc043703          	ld	a4,-64(s0)
    80001e0e:	fe843783          	ld	a5,-24(s0)
    80001e12:	97ba                	add	a5,a5,a4
    80001e14:	fcf43023          	sd	a5,-64(s0)
        srcva += n;
    80001e18:	fb843703          	ld	a4,-72(s0)
    80001e1c:	fe843783          	ld	a5,-24(s0)
    80001e20:	97ba                	add	a5,a5,a4
    80001e22:	faf43c23          	sd	a5,-72(s0)
    while(len > 0){
    80001e26:	fb043783          	ld	a5,-80(s0)
    80001e2a:	fb9d                	bnez	a5,80001d60 <copyin+0x1a>
    }
    return 0;
    80001e2c:	4781                	li	a5,0
}
    80001e2e:	853e                	mv	a0,a5
    80001e30:	60a6                	ld	ra,72(sp)
    80001e32:	6406                	ld	s0,64(sp)
    80001e34:	6161                	add	sp,sp,80
    80001e36:	8082                	ret

0000000080001e38 <copyout>:

// 从内核缓冲区拷贝到用户空间
int copyout(pagetable_t pagetable, uint64 dstva, char *src, uint64 len)
{
    80001e38:	715d                	add	sp,sp,-80
    80001e3a:	e486                	sd	ra,72(sp)
    80001e3c:	e0a2                	sd	s0,64(sp)
    80001e3e:	0880                	add	s0,sp,80
    80001e40:	fca43423          	sd	a0,-56(s0)
    80001e44:	fcb43023          	sd	a1,-64(s0)
    80001e48:	fac43c23          	sd	a2,-72(s0)
    80001e4c:	fad43823          	sd	a3,-80(s0)
    while(len > 0){
    80001e50:	a0e1                	j	80001f18 <copyout+0xe0>
        uint64 va0 = PGROUNDDOWN(dstva);
    80001e52:	fc043703          	ld	a4,-64(s0)
    80001e56:	77fd                	lui	a5,0xfffff
    80001e58:	8ff9                	and	a5,a5,a4
    80001e5a:	fef43023          	sd	a5,-32(s0)
        pte_t *pte = walk_lookup(pagetable, va0);
    80001e5e:	fe043583          	ld	a1,-32(s0)
    80001e62:	fc843503          	ld	a0,-56(s0)
    80001e66:	fffff097          	auipc	ra,0xfffff
    80001e6a:	7e2080e7          	jalr	2018(ra) # 80001648 <walk_lookup>
    80001e6e:	fca43c23          	sd	a0,-40(s0)
        if(pte == 0 || (*pte & PTE_V) == 0 || (*pte & PTE_U) == 0)
    80001e72:	fd843783          	ld	a5,-40(s0)
    80001e76:	cb99                	beqz	a5,80001e8c <copyout+0x54>
    80001e78:	fd843783          	ld	a5,-40(s0)
    80001e7c:	639c                	ld	a5,0(a5)
    80001e7e:	8b85                	and	a5,a5,1
    80001e80:	c791                	beqz	a5,80001e8c <copyout+0x54>
    80001e82:	fd843783          	ld	a5,-40(s0)
    80001e86:	639c                	ld	a5,0(a5)
    80001e88:	8bc1                	and	a5,a5,16
    80001e8a:	e399                	bnez	a5,80001e90 <copyout+0x58>
            return -1;
    80001e8c:	57fd                	li	a5,-1
    80001e8e:	a849                	j	80001f20 <copyout+0xe8>
        uint64 pa0 = PTE_PA(*pte);
    80001e90:	fd843783          	ld	a5,-40(s0)
    80001e94:	639c                	ld	a5,0(a5)
    80001e96:	83a9                	srl	a5,a5,0xa
    80001e98:	07b2                	sll	a5,a5,0xc
    80001e9a:	fcf43823          	sd	a5,-48(s0)

        uint64 n = PGSIZE - (dstva - va0);
    80001e9e:	fe043703          	ld	a4,-32(s0)
    80001ea2:	fc043783          	ld	a5,-64(s0)
    80001ea6:	8f1d                	sub	a4,a4,a5
    80001ea8:	6785                	lui	a5,0x1
    80001eaa:	97ba                	add	a5,a5,a4
    80001eac:	fef43423          	sd	a5,-24(s0)
        if(n > len)
    80001eb0:	fe843703          	ld	a4,-24(s0)
    80001eb4:	fb043783          	ld	a5,-80(s0)
    80001eb8:	00e7f663          	bgeu	a5,a4,80001ec4 <copyout+0x8c>
            n = len;
    80001ebc:	fb043783          	ld	a5,-80(s0)
    80001ec0:	fef43423          	sd	a5,-24(s0)

        memcpy((void*)(pa0 + (dstva - va0)), src, n);
    80001ec4:	fc043703          	ld	a4,-64(s0)
    80001ec8:	fe043783          	ld	a5,-32(s0)
    80001ecc:	8f1d                	sub	a4,a4,a5
    80001ece:	fd043783          	ld	a5,-48(s0)
    80001ed2:	97ba                	add	a5,a5,a4
    80001ed4:	873e                	mv	a4,a5
    80001ed6:	fe843783          	ld	a5,-24(s0)
    80001eda:	2781                	sext.w	a5,a5
    80001edc:	863e                	mv	a2,a5
    80001ede:	fb843583          	ld	a1,-72(s0)
    80001ee2:	853a                	mv	a0,a4
    80001ee4:	fffff097          	auipc	ra,0xfffff
    80001ee8:	28a080e7          	jalr	650(ra) # 8000116e <memcpy>

        len   -= n;
    80001eec:	fb043703          	ld	a4,-80(s0)
    80001ef0:	fe843783          	ld	a5,-24(s0)
    80001ef4:	40f707b3          	sub	a5,a4,a5
    80001ef8:	faf43823          	sd	a5,-80(s0)
        src   += n;
    80001efc:	fb843703          	ld	a4,-72(s0)
    80001f00:	fe843783          	ld	a5,-24(s0)
    80001f04:	97ba                	add	a5,a5,a4
    80001f06:	faf43c23          	sd	a5,-72(s0)
        dstva += n;
    80001f0a:	fc043703          	ld	a4,-64(s0)
    80001f0e:	fe843783          	ld	a5,-24(s0)
    80001f12:	97ba                	add	a5,a5,a4
    80001f14:	fcf43023          	sd	a5,-64(s0)
    while(len > 0){
    80001f18:	fb043783          	ld	a5,-80(s0)
    80001f1c:	fb9d                	bnez	a5,80001e52 <copyout+0x1a>
    }
    return 0;
    80001f1e:	4781                	li	a5,0
}
    80001f20:	853e                	mv	a0,a5
    80001f22:	60a6                	ld	ra,72(sp)
    80001f24:	6406                	ld	s0,64(sp)
    80001f26:	6161                	add	sp,sp,80
    80001f28:	8082                	ret

0000000080001f2a <proc_pagetable>:

// ==================== 用户页表管理 ====================

// 为进程创建用户页表
pagetable_t proc_pagetable(struct proc *p)
{
    80001f2a:	7179                	add	sp,sp,-48
    80001f2c:	f406                	sd	ra,40(sp)
    80001f2e:	f022                	sd	s0,32(sp)
    80001f30:	1800                	add	s0,sp,48
    80001f32:	fca43c23          	sd	a0,-40(s0)
    pagetable_t pagetable;
    
    pagetable = create_pagetable();
    80001f36:	fffff097          	auipc	ra,0xfffff
    80001f3a:	62e080e7          	jalr	1582(ra) # 80001564 <create_pagetable>
    80001f3e:	fea43423          	sd	a0,-24(s0)
    if(pagetable == 0)
    80001f42:	fe843783          	ld	a5,-24(s0)
    80001f46:	e399                	bnez	a5,80001f4c <proc_pagetable+0x22>
        return 0;
    80001f48:	4781                	li	a5,0
    80001f4a:	a251                	j	800020ce <proc_pagetable+0x1a4>
    
    // 映射 trampoline
    extern char trampoline[];
    printf("[DEBUG] proc_pagetable: trampoline phys=%p\n", (void*)trampoline);
    80001f4c:	00004597          	auipc	a1,0x4
    80001f50:	0b458593          	add	a1,a1,180 # 80006000 <etext>
    80001f54:	00005517          	auipc	a0,0x5
    80001f58:	ed450513          	add	a0,a0,-300 # 80006e28 <userret+0xdc4>
    80001f5c:	fffff097          	auipc	ra,0xfffff
    80001f60:	c8a080e7          	jalr	-886(ra) # 80000be6 <printf>
    printf("[DEBUG] proc_pagetable: TRAMPOLINE virt=%p\n", (void*)TRAMPOLINE);
    80001f64:	040007b7          	lui	a5,0x4000
    80001f68:	17fd                	add	a5,a5,-1 # 3ffffff <_entry-0x7c000001>
    80001f6a:	00c79593          	sll	a1,a5,0xc
    80001f6e:	00005517          	auipc	a0,0x5
    80001f72:	eea50513          	add	a0,a0,-278 # 80006e58 <userret+0xdf4>
    80001f76:	fffff097          	auipc	ra,0xfffff
    80001f7a:	c70080e7          	jalr	-912(ra) # 80000be6 <printf>
    
    if(map_page(pagetable, TRAMPOLINE, (uint64)trampoline,
    80001f7e:	00004797          	auipc	a5,0x4
    80001f82:	08278793          	add	a5,a5,130 # 80006000 <etext>
    80001f86:	46a9                	li	a3,10
    80001f88:	863e                	mv	a2,a5
    80001f8a:	040007b7          	lui	a5,0x4000
    80001f8e:	17fd                	add	a5,a5,-1 # 3ffffff <_entry-0x7c000001>
    80001f90:	00c79593          	sll	a1,a5,0xc
    80001f94:	fe843503          	ld	a0,-24(s0)
    80001f98:	00000097          	auipc	ra,0x0
    80001f9c:	834080e7          	jalr	-1996(ra) # 800017cc <map_page>
    80001fa0:	87aa                	mv	a5,a0
    80001fa2:	c38d                	beqz	a5,80001fc4 <proc_pagetable+0x9a>
                PTE_R | PTE_X) != 0) {
        printf("[ERROR] Failed to map trampoline\n");
    80001fa4:	00005517          	auipc	a0,0x5
    80001fa8:	ee450513          	add	a0,a0,-284 # 80006e88 <userret+0xe24>
    80001fac:	fffff097          	auipc	ra,0xfffff
    80001fb0:	c3a080e7          	jalr	-966(ra) # 80000be6 <printf>
        destroy_pagetable(pagetable);
    80001fb4:	fe843503          	ld	a0,-24(s0)
    80001fb8:	fffff097          	auipc	ra,0xfffff
    80001fbc:	666080e7          	jalr	1638(ra) # 8000161e <destroy_pagetable>
        return 0;
    80001fc0:	4781                	li	a5,0
    80001fc2:	a231                	j	800020ce <proc_pagetable+0x1a4>
    }
    
    // 验证映射是否成功
    pte_t *pte = walk_lookup(pagetable, TRAMPOLINE);
    80001fc4:	040007b7          	lui	a5,0x4000
    80001fc8:	17fd                	add	a5,a5,-1 # 3ffffff <_entry-0x7c000001>
    80001fca:	00c79593          	sll	a1,a5,0xc
    80001fce:	fe843503          	ld	a0,-24(s0)
    80001fd2:	fffff097          	auipc	ra,0xfffff
    80001fd6:	676080e7          	jalr	1654(ra) # 80001648 <walk_lookup>
    80001fda:	fea43023          	sd	a0,-32(s0)
    if(pte == 0 || (*pte & PTE_V) == 0) {
    80001fde:	fe043783          	ld	a5,-32(s0)
    80001fe2:	c791                	beqz	a5,80001fee <proc_pagetable+0xc4>
    80001fe4:	fe043783          	ld	a5,-32(s0)
    80001fe8:	639c                	ld	a5,0(a5)
    80001fea:	8b85                	and	a5,a5,1
    80001fec:	e38d                	bnez	a5,8000200e <proc_pagetable+0xe4>
        printf("[ERROR] Trampoline not mapped correctly!\n");
    80001fee:	00005517          	auipc	a0,0x5
    80001ff2:	ec250513          	add	a0,a0,-318 # 80006eb0 <userret+0xe4c>
    80001ff6:	fffff097          	auipc	ra,0xfffff
    80001ffa:	bf0080e7          	jalr	-1040(ra) # 80000be6 <printf>
        destroy_pagetable(pagetable);
    80001ffe:	fe843503          	ld	a0,-24(s0)
    80002002:	fffff097          	auipc	ra,0xfffff
    80002006:	61c080e7          	jalr	1564(ra) # 8000161e <destroy_pagetable>
        return 0;
    8000200a:	4781                	li	a5,0
    8000200c:	a0c9                	j	800020ce <proc_pagetable+0x1a4>
    }
    printf("[DEBUG] Trampoline PTE: %p (flags: %s%s%s%s)\n",
           (void*)*pte,
    8000200e:	fe043783          	ld	a5,-32(s0)
    80002012:	639c                	ld	a5,0(a5)
    printf("[DEBUG] Trampoline PTE: %p (flags: %s%s%s%s)\n",
    80002014:	85be                	mv	a1,a5
           (*pte & PTE_V) ? "V" : "-",
    80002016:	fe043783          	ld	a5,-32(s0)
    8000201a:	639c                	ld	a5,0(a5)
    8000201c:	8b85                	and	a5,a5,1
    printf("[DEBUG] Trampoline PTE: %p (flags: %s%s%s%s)\n",
    8000201e:	c791                	beqz	a5,8000202a <proc_pagetable+0x100>
    80002020:	00005617          	auipc	a2,0x5
    80002024:	ec060613          	add	a2,a2,-320 # 80006ee0 <userret+0xe7c>
    80002028:	a029                	j	80002032 <proc_pagetable+0x108>
    8000202a:	00005617          	auipc	a2,0x5
    8000202e:	ebe60613          	add	a2,a2,-322 # 80006ee8 <userret+0xe84>
           (*pte & PTE_R) ? "R" : "-",
    80002032:	fe043783          	ld	a5,-32(s0)
    80002036:	639c                	ld	a5,0(a5)
    80002038:	8b89                	and	a5,a5,2
    printf("[DEBUG] Trampoline PTE: %p (flags: %s%s%s%s)\n",
    8000203a:	c791                	beqz	a5,80002046 <proc_pagetable+0x11c>
    8000203c:	00005697          	auipc	a3,0x5
    80002040:	eb468693          	add	a3,a3,-332 # 80006ef0 <userret+0xe8c>
    80002044:	a029                	j	8000204e <proc_pagetable+0x124>
    80002046:	00005697          	auipc	a3,0x5
    8000204a:	ea268693          	add	a3,a3,-350 # 80006ee8 <userret+0xe84>
           (*pte & PTE_W) ? "W" : "-",
    8000204e:	fe043783          	ld	a5,-32(s0)
    80002052:	639c                	ld	a5,0(a5)
    80002054:	8b91                	and	a5,a5,4
    printf("[DEBUG] Trampoline PTE: %p (flags: %s%s%s%s)\n",
    80002056:	c791                	beqz	a5,80002062 <proc_pagetable+0x138>
    80002058:	00005717          	auipc	a4,0x5
    8000205c:	ea070713          	add	a4,a4,-352 # 80006ef8 <userret+0xe94>
    80002060:	a029                	j	8000206a <proc_pagetable+0x140>
    80002062:	00005717          	auipc	a4,0x5
    80002066:	e8670713          	add	a4,a4,-378 # 80006ee8 <userret+0xe84>
           (*pte & PTE_X) ? "X" : "-");
    8000206a:	fe043783          	ld	a5,-32(s0)
    8000206e:	639c                	ld	a5,0(a5)
    80002070:	8ba1                	and	a5,a5,8
    printf("[DEBUG] Trampoline PTE: %p (flags: %s%s%s%s)\n",
    80002072:	c791                	beqz	a5,8000207e <proc_pagetable+0x154>
    80002074:	00005797          	auipc	a5,0x5
    80002078:	e8c78793          	add	a5,a5,-372 # 80006f00 <userret+0xe9c>
    8000207c:	a029                	j	80002086 <proc_pagetable+0x15c>
    8000207e:	00005797          	auipc	a5,0x5
    80002082:	e6a78793          	add	a5,a5,-406 # 80006ee8 <userret+0xe84>
    80002086:	00005517          	auipc	a0,0x5
    8000208a:	e8250513          	add	a0,a0,-382 # 80006f08 <userret+0xea4>
    8000208e:	fffff097          	auipc	ra,0xfffff
    80002092:	b58080e7          	jalr	-1192(ra) # 80000be6 <printf>
    
    // 映射 trapframe
    if(map_page(pagetable, TRAPFRAME, (uint64)p->trapframe,
    80002096:	fd843783          	ld	a5,-40(s0)
    8000209a:	6bdc                	ld	a5,144(a5)
    8000209c:	4699                	li	a3,6
    8000209e:	863e                	mv	a2,a5
    800020a0:	020007b7          	lui	a5,0x2000
    800020a4:	17fd                	add	a5,a5,-1 # 1ffffff <_entry-0x7e000001>
    800020a6:	00d79593          	sll	a1,a5,0xd
    800020aa:	fe843503          	ld	a0,-24(s0)
    800020ae:	fffff097          	auipc	ra,0xfffff
    800020b2:	71e080e7          	jalr	1822(ra) # 800017cc <map_page>
    800020b6:	87aa                	mv	a5,a0
    800020b8:	cb89                	beqz	a5,800020ca <proc_pagetable+0x1a0>
                PTE_R | PTE_W) != 0) {
        destroy_pagetable(pagetable);
    800020ba:	fe843503          	ld	a0,-24(s0)
    800020be:	fffff097          	auipc	ra,0xfffff
    800020c2:	560080e7          	jalr	1376(ra) # 8000161e <destroy_pagetable>
        return 0;
    800020c6:	4781                	li	a5,0
    800020c8:	a019                	j	800020ce <proc_pagetable+0x1a4>
    }
    
    return pagetable;
    800020ca:	fe843783          	ld	a5,-24(s0)
}
    800020ce:	853e                	mv	a0,a5
    800020d0:	70a2                	ld	ra,40(sp)
    800020d2:	7402                	ld	s0,32(sp)
    800020d4:	6145                	add	sp,sp,48
    800020d6:	8082                	ret

00000000800020d8 <proc_freepagetable>:

// 释放进程的用户页表
void proc_freepagetable(pagetable_t pagetable, uint64 size)
{
    800020d8:	1101                	add	sp,sp,-32
    800020da:	ec06                	sd	ra,24(sp)
    800020dc:	e822                	sd	s0,16(sp)
    800020de:	1000                	add	s0,sp,32
    800020e0:	fea43423          	sd	a0,-24(s0)
    800020e4:	feb43023          	sd	a1,-32(s0)
    
    // 释放用户代码和数据页
    // TODO: 遍历页表释放用户页
    
    // 释放页表本身
    destroy_pagetable(pagetable);
    800020e8:	fe843503          	ld	a0,-24(s0)
    800020ec:	fffff097          	auipc	ra,0xfffff
    800020f0:	532080e7          	jalr	1330(ra) # 8000161e <destroy_pagetable>
}
    800020f4:	0001                	nop
    800020f6:	60e2                	ld	ra,24(sp)
    800020f8:	6442                	ld	s0,16(sp)
    800020fa:	6105                	add	sp,sp,32
    800020fc:	8082                	ret

00000000800020fe <test_multilevel_pagetable>:
#include "mm.h"
#include "defs.h"
#include "riscv.h"

// ==================== 多级页表映射测试 ====================
void test_multilevel_pagetable(void) {
    800020fe:	711d                	add	sp,sp,-96
    80002100:	ec86                	sd	ra,88(sp)
    80002102:	e8a2                	sd	s0,80(sp)
    80002104:	1080                	add	s0,sp,96
    printf("=== Testing Multi-level Page Table ===\n");
    80002106:	00005517          	auipc	a0,0x5
    8000210a:	e3250513          	add	a0,a0,-462 # 80006f38 <userret+0xed4>
    8000210e:	fffff097          	auipc	ra,0xfffff
    80002112:	ad8080e7          	jalr	-1320(ra) # 80000be6 <printf>
    
    pagetable_t pt = create_pagetable();
    80002116:	fffff097          	auipc	ra,0xfffff
    8000211a:	44e080e7          	jalr	1102(ra) # 80001564 <create_pagetable>
    8000211e:	fea43023          	sd	a0,-32(s0)
    if(pt == 0) {
    80002122:	fe043783          	ld	a5,-32(s0)
    80002126:	eb91                	bnez	a5,8000213a <test_multilevel_pagetable+0x3c>
        printf("ERROR: create_pagetable failed\n");
    80002128:	00005517          	auipc	a0,0x5
    8000212c:	e3850513          	add	a0,a0,-456 # 80006f60 <userret+0xefc>
    80002130:	fffff097          	auipc	ra,0xfffff
    80002134:	ab6080e7          	jalr	-1354(ra) # 80000be6 <printf>
    80002138:	aa59                	j	800022ce <test_multilevel_pagetable+0x1d0>
        return;
    }
    
    // 测试地址数组
    uint64 test_vas[] = {
    8000213a:	00005797          	auipc	a5,0x5
    8000213e:	f6e78793          	add	a5,a5,-146 # 800070a8 <userret+0x1044>
    80002142:	6390                	ld	a2,0(a5)
    80002144:	6794                	ld	a3,8(a5)
    80002146:	6b98                	ld	a4,16(a5)
    80002148:	6f9c                	ld	a5,24(a5)
    8000214a:	fac43423          	sd	a2,-88(s0)
    8000214e:	fad43823          	sd	a3,-80(s0)
    80002152:	fae43c23          	sd	a4,-72(s0)
    80002156:	fcf43023          	sd	a5,-64(s0)
        0x200000,       // 2MB
        0x40000000,     // 1GB
        0x7000000000,   // 接近39位限制
    };
    
    for(int i = 0; i < 4; i++) {
    8000215a:	fe042623          	sw	zero,-20(s0)
    8000215e:	a299                	j	800022a4 <test_multilevel_pagetable+0x1a6>
        uint64 va = test_vas[i];
    80002160:	fec42783          	lw	a5,-20(s0)
    80002164:	078e                	sll	a5,a5,0x3
    80002166:	17c1                	add	a5,a5,-16
    80002168:	97a2                	add	a5,a5,s0
    8000216a:	fb87b783          	ld	a5,-72(a5)
    8000216e:	fcf43c23          	sd	a5,-40(s0)
        
        // Sv39地址空间边界检查
        if(va >= (1L << 39)) {
    80002172:	fd843703          	ld	a4,-40(s0)
    80002176:	57fd                	li	a5,-1
    80002178:	83e5                	srl	a5,a5,0x19
    8000217a:	02e7f163          	bgeu	a5,a4,8000219c <test_multilevel_pagetable+0x9e>
            printf("Test %d: VA %p exceeds Sv39 limit, skipping\n", i, (void*)va);
    8000217e:	fd843703          	ld	a4,-40(s0)
    80002182:	fec42783          	lw	a5,-20(s0)
    80002186:	863a                	mv	a2,a4
    80002188:	85be                	mv	a1,a5
    8000218a:	00005517          	auipc	a0,0x5
    8000218e:	df650513          	add	a0,a0,-522 # 80006f80 <userret+0xf1c>
    80002192:	fffff097          	auipc	ra,0xfffff
    80002196:	a54080e7          	jalr	-1452(ra) # 80000be6 <printf>
            continue;
    8000219a:	a201                	j	8000229a <test_multilevel_pagetable+0x19c>
        }
        
        // 分配物理页面
        uint64 pa = (uint64)alloc_page();
    8000219c:	fffff097          	auipc	ra,0xfffff
    800021a0:	14c080e7          	jalr	332(ra) # 800012e8 <alloc_page>
    800021a4:	87aa                	mv	a5,a0
    800021a6:	fcf43823          	sd	a5,-48(s0)
        if(pa == 0) {
    800021aa:	fd043783          	ld	a5,-48(s0)
    800021ae:	ef89                	bnez	a5,800021c8 <test_multilevel_pagetable+0xca>
            printf("ERROR: alloc_page failed for test %d\n", i);
    800021b0:	fec42783          	lw	a5,-20(s0)
    800021b4:	85be                	mv	a1,a5
    800021b6:	00005517          	auipc	a0,0x5
    800021ba:	dfa50513          	add	a0,a0,-518 # 80006fb0 <userret+0xf4c>
    800021be:	fffff097          	auipc	ra,0xfffff
    800021c2:	a28080e7          	jalr	-1496(ra) # 80000be6 <printf>
            continue;
    800021c6:	a8d1                	j	8000229a <test_multilevel_pagetable+0x19c>
        }
        
        printf("Test %d: mapping VA %p to PA %p\n", i, (void*)va, (void*)pa);
    800021c8:	fd843703          	ld	a4,-40(s0)
    800021cc:	fd043683          	ld	a3,-48(s0)
    800021d0:	fec42783          	lw	a5,-20(s0)
    800021d4:	863a                	mv	a2,a4
    800021d6:	85be                	mv	a1,a5
    800021d8:	00005517          	auipc	a0,0x5
    800021dc:	e0050513          	add	a0,a0,-512 # 80006fd8 <userret+0xf74>
    800021e0:	fffff097          	auipc	ra,0xfffff
    800021e4:	a06080e7          	jalr	-1530(ra) # 80000be6 <printf>
        
        // 建立映射
        if(map_page(pt, va, pa, PTE_R | PTE_W | PTE_X) != 0) {
    800021e8:	46b9                	li	a3,14
    800021ea:	fd043603          	ld	a2,-48(s0)
    800021ee:	fd843583          	ld	a1,-40(s0)
    800021f2:	fe043503          	ld	a0,-32(s0)
    800021f6:	fffff097          	auipc	ra,0xfffff
    800021fa:	5d6080e7          	jalr	1494(ra) # 800017cc <map_page>
    800021fe:	87aa                	mv	a5,a0
    80002200:	c785                	beqz	a5,80002228 <test_multilevel_pagetable+0x12a>
            printf("ERROR: map_page failed for test %d\n", i);
    80002202:	fec42783          	lw	a5,-20(s0)
    80002206:	85be                	mv	a1,a5
    80002208:	00005517          	auipc	a0,0x5
    8000220c:	df850513          	add	a0,a0,-520 # 80007000 <userret+0xf9c>
    80002210:	fffff097          	auipc	ra,0xfffff
    80002214:	9d6080e7          	jalr	-1578(ra) # 80000be6 <printf>
            free_page((void*)pa);
    80002218:	fd043783          	ld	a5,-48(s0)
    8000221c:	853e                	mv	a0,a5
    8000221e:	fffff097          	auipc	ra,0xfffff
    80002222:	12c080e7          	jalr	300(ra) # 8000134a <free_page>
            continue;
    80002226:	a895                	j	8000229a <test_multilevel_pagetable+0x19c>
        }
        
        // 验证映射
        pte_t *pte = walk_lookup(pt, va);
    80002228:	fd843583          	ld	a1,-40(s0)
    8000222c:	fe043503          	ld	a0,-32(s0)
    80002230:	fffff097          	auipc	ra,0xfffff
    80002234:	418080e7          	jalr	1048(ra) # 80001648 <walk_lookup>
    80002238:	fca43423          	sd	a0,-56(s0)
        if(pte == 0 || !(*pte & PTE_V) || PTE_PA(*pte) != pa) {
    8000223c:	fc843783          	ld	a5,-56(s0)
    80002240:	cf99                	beqz	a5,8000225e <test_multilevel_pagetable+0x160>
    80002242:	fc843783          	ld	a5,-56(s0)
    80002246:	639c                	ld	a5,0(a5)
    80002248:	8b85                	and	a5,a5,1
    8000224a:	cb91                	beqz	a5,8000225e <test_multilevel_pagetable+0x160>
    8000224c:	fc843783          	ld	a5,-56(s0)
    80002250:	639c                	ld	a5,0(a5)
    80002252:	83a9                	srl	a5,a5,0xa
    80002254:	07b2                	sll	a5,a5,0xc
    80002256:	fd043703          	ld	a4,-48(s0)
    8000225a:	00f70e63          	beq	a4,a5,80002276 <test_multilevel_pagetable+0x178>
            printf("ERROR: mapping verification failed for test %d\n", i);
    8000225e:	fec42783          	lw	a5,-20(s0)
    80002262:	85be                	mv	a1,a5
    80002264:	00005517          	auipc	a0,0x5
    80002268:	dc450513          	add	a0,a0,-572 # 80007028 <userret+0xfc4>
    8000226c:	fffff097          	auipc	ra,0xfffff
    80002270:	97a080e7          	jalr	-1670(ra) # 80000be6 <printf>
    80002274:	a821                	j	8000228c <test_multilevel_pagetable+0x18e>
        } else {
            printf("Test %d: mapping verification PASSED\n", i);
    80002276:	fec42783          	lw	a5,-20(s0)
    8000227a:	85be                	mv	a1,a5
    8000227c:	00005517          	auipc	a0,0x5
    80002280:	ddc50513          	add	a0,a0,-548 # 80007058 <userret+0xff4>
    80002284:	fffff097          	auipc	ra,0xfffff
    80002288:	962080e7          	jalr	-1694(ra) # 80000be6 <printf>
        }
        
        // 清理
        free_page((void*)pa);
    8000228c:	fd043783          	ld	a5,-48(s0)
    80002290:	853e                	mv	a0,a5
    80002292:	fffff097          	auipc	ra,0xfffff
    80002296:	0b8080e7          	jalr	184(ra) # 8000134a <free_page>
    for(int i = 0; i < 4; i++) {
    8000229a:	fec42783          	lw	a5,-20(s0)
    8000229e:	2785                	addw	a5,a5,1
    800022a0:	fef42623          	sw	a5,-20(s0)
    800022a4:	fec42783          	lw	a5,-20(s0)
    800022a8:	0007871b          	sext.w	a4,a5
    800022ac:	478d                	li	a5,3
    800022ae:	eae7d9e3          	bge	a5,a4,80002160 <test_multilevel_pagetable+0x62>
    }
    
    // 清理页表
    destroy_pagetable(pt);
    800022b2:	fe043503          	ld	a0,-32(s0)
    800022b6:	fffff097          	auipc	ra,0xfffff
    800022ba:	368080e7          	jalr	872(ra) # 8000161e <destroy_pagetable>
    printf("Multi-level page table test completed\n\n");
    800022be:	00005517          	auipc	a0,0x5
    800022c2:	dc250513          	add	a0,a0,-574 # 80007080 <userret+0x101c>
    800022c6:	fffff097          	auipc	ra,0xfffff
    800022ca:	920080e7          	jalr	-1760(ra) # 80000be6 <printf>
}
    800022ce:	60e6                	ld	ra,88(sp)
    800022d0:	6446                	ld	s0,80(sp)
    800022d2:	6125                	add	sp,sp,96
    800022d4:	8082                	ret

00000000800022d6 <test_edge_cases>:

// ==================== 边界条件测试 ====================
void test_edge_cases(void) {
    800022d6:	cb010113          	add	sp,sp,-848
    800022da:	34113423          	sd	ra,840(sp)
    800022de:	34813023          	sd	s0,832(sp)
    800022e2:	0e80                	add	s0,sp,848
    printf("=== Testing Edge Cases ===\n");
    800022e4:	00005517          	auipc	a0,0x5
    800022e8:	de450513          	add	a0,a0,-540 # 800070c8 <userret+0x1064>
    800022ec:	fffff097          	auipc	ra,0xfffff
    800022f0:	8fa080e7          	jalr	-1798(ra) # 80000be6 <printf>
    
    // 测试内存耗尽
    printf("Testing memory exhaustion...\n");
    800022f4:	00005517          	auipc	a0,0x5
    800022f8:	df450513          	add	a0,a0,-524 # 800070e8 <userret+0x1084>
    800022fc:	fffff097          	auipc	ra,0xfffff
    80002300:	8ea080e7          	jalr	-1814(ra) # 80000be6 <printf>
    void *pages[100];
    int allocated = 0;
    80002304:	fe042623          	sw	zero,-20(s0)
    
    for(int i = 0; i < 100; i++) {
    80002308:	fe042423          	sw	zero,-24(s0)
    8000230c:	a899                	j	80002362 <test_edge_cases+0x8c>
        pages[i] = alloc_page();
    8000230e:	fffff097          	auipc	ra,0xfffff
    80002312:	fda080e7          	jalr	-38(ra) # 800012e8 <alloc_page>
    80002316:	872a                	mv	a4,a0
    80002318:	fe842783          	lw	a5,-24(s0)
    8000231c:	078e                	sll	a5,a5,0x3
    8000231e:	17c1                	add	a5,a5,-16
    80002320:	97a2                	add	a5,a5,s0
    80002322:	cce7b023          	sd	a4,-832(a5)
        if(pages[i] == 0) {
    80002326:	fe842783          	lw	a5,-24(s0)
    8000232a:	078e                	sll	a5,a5,0x3
    8000232c:	17c1                	add	a5,a5,-16
    8000232e:	97a2                	add	a5,a5,s0
    80002330:	cc07b783          	ld	a5,-832(a5)
    80002334:	ef89                	bnez	a5,8000234e <test_edge_cases+0x78>
            printf("Memory exhausted after %d pages\n", i);
    80002336:	fe842783          	lw	a5,-24(s0)
    8000233a:	85be                	mv	a1,a5
    8000233c:	00005517          	auipc	a0,0x5
    80002340:	dcc50513          	add	a0,a0,-564 # 80007108 <userret+0x10a4>
    80002344:	fffff097          	auipc	ra,0xfffff
    80002348:	8a2080e7          	jalr	-1886(ra) # 80000be6 <printf>
            break;
    8000234c:	a01d                	j	80002372 <test_edge_cases+0x9c>
        }
        allocated++;
    8000234e:	fec42783          	lw	a5,-20(s0)
    80002352:	2785                	addw	a5,a5,1
    80002354:	fef42623          	sw	a5,-20(s0)
    for(int i = 0; i < 100; i++) {
    80002358:	fe842783          	lw	a5,-24(s0)
    8000235c:	2785                	addw	a5,a5,1
    8000235e:	fef42423          	sw	a5,-24(s0)
    80002362:	fe842783          	lw	a5,-24(s0)
    80002366:	0007871b          	sext.w	a4,a5
    8000236a:	06300793          	li	a5,99
    8000236e:	fae7d0e3          	bge	a5,a4,8000230e <test_edge_cases+0x38>
    }
    
    // 释放所有页面
    for(int i = 0; i < allocated; i++) {
    80002372:	fe042223          	sw	zero,-28(s0)
    80002376:	a015                	j	8000239a <test_edge_cases+0xc4>
        free_page(pages[i]);
    80002378:	fe442783          	lw	a5,-28(s0)
    8000237c:	078e                	sll	a5,a5,0x3
    8000237e:	17c1                	add	a5,a5,-16
    80002380:	97a2                	add	a5,a5,s0
    80002382:	cc07b783          	ld	a5,-832(a5)
    80002386:	853e                	mv	a0,a5
    80002388:	fffff097          	auipc	ra,0xfffff
    8000238c:	fc2080e7          	jalr	-62(ra) # 8000134a <free_page>
    for(int i = 0; i < allocated; i++) {
    80002390:	fe442783          	lw	a5,-28(s0)
    80002394:	2785                	addw	a5,a5,1
    80002396:	fef42223          	sw	a5,-28(s0)
    8000239a:	fe442783          	lw	a5,-28(s0)
    8000239e:	873e                	mv	a4,a5
    800023a0:	fec42783          	lw	a5,-20(s0)
    800023a4:	2701                	sext.w	a4,a4
    800023a6:	2781                	sext.w	a5,a5
    800023a8:	fcf748e3          	blt	a4,a5,80002378 <test_edge_cases+0xa2>
    }
    printf("Memory exhaustion test completed\n");
    800023ac:	00005517          	auipc	a0,0x5
    800023b0:	d8450513          	add	a0,a0,-636 # 80007130 <userret+0x10cc>
    800023b4:	fffff097          	auipc	ra,0xfffff
    800023b8:	832080e7          	jalr	-1998(ra) # 80000be6 <printf>
    
    // 测试地址对齐
    printf("Testing address alignment...\n");
    800023bc:	00005517          	auipc	a0,0x5
    800023c0:	d9c50513          	add	a0,a0,-612 # 80007158 <userret+0x10f4>
    800023c4:	fffff097          	auipc	ra,0xfffff
    800023c8:	822080e7          	jalr	-2014(ra) # 80000be6 <printf>
    pagetable_t pt = create_pagetable();
    800023cc:	fffff097          	auipc	ra,0xfffff
    800023d0:	198080e7          	jalr	408(ra) # 80001564 <create_pagetable>
    800023d4:	fca43c23          	sd	a0,-40(s0)
    uint64 pa = (uint64)alloc_page();
    800023d8:	fffff097          	auipc	ra,0xfffff
    800023dc:	f10080e7          	jalr	-240(ra) # 800012e8 <alloc_page>
    800023e0:	87aa                	mv	a5,a0
    800023e2:	fcf43823          	sd	a5,-48(s0)
    
    printf("Address alignment test completed\n");
    800023e6:	00005517          	auipc	a0,0x5
    800023ea:	d9250513          	add	a0,a0,-622 # 80007178 <userret+0x1114>
    800023ee:	ffffe097          	auipc	ra,0xffffe
    800023f2:	7f8080e7          	jalr	2040(ra) # 80000be6 <printf>
    
    // 清理
    free_page((void*)pa);
    800023f6:	fd043783          	ld	a5,-48(s0)
    800023fa:	853e                	mv	a0,a5
    800023fc:	fffff097          	auipc	ra,0xfffff
    80002400:	f4e080e7          	jalr	-178(ra) # 8000134a <free_page>
    destroy_pagetable(pt);
    80002404:	fd843503          	ld	a0,-40(s0)
    80002408:	fffff097          	auipc	ra,0xfffff
    8000240c:	216080e7          	jalr	534(ra) # 8000161e <destroy_pagetable>
    printf("Edge cases test completed\n\n");
    80002410:	00005517          	auipc	a0,0x5
    80002414:	d9050513          	add	a0,a0,-624 # 800071a0 <userret+0x113c>
    80002418:	ffffe097          	auipc	ra,0xffffe
    8000241c:	7ce080e7          	jalr	1998(ra) # 80000be6 <printf>
}
    80002420:	0001                	nop
    80002422:	34813083          	ld	ra,840(sp)
    80002426:	34013403          	ld	s0,832(sp)
    8000242a:	35010113          	add	sp,sp,848
    8000242e:	8082                	ret

0000000080002430 <run_comprehensive_tests>:

// ==================== 综合测试入口 ====================
void run_comprehensive_tests(void) {
    80002430:	1141                	add	sp,sp,-16
    80002432:	e406                	sd	ra,8(sp)
    80002434:	e022                	sd	s0,0(sp)
    80002436:	0800                	add	s0,sp,16
    printf("=== Comprehensive Memory Management Tests ===\n\n");
    80002438:	00005517          	auipc	a0,0x5
    8000243c:	d8850513          	add	a0,a0,-632 # 800071c0 <userret+0x115c>
    80002440:	ffffe097          	auipc	ra,0xffffe
    80002444:	7a6080e7          	jalr	1958(ra) # 80000be6 <printf>
    
    // 按顺序运行测试
    test_multilevel_pagetable();
    80002448:	00000097          	auipc	ra,0x0
    8000244c:	cb6080e7          	jalr	-842(ra) # 800020fe <test_multilevel_pagetable>
    test_edge_cases();
    80002450:	00000097          	auipc	ra,0x0
    80002454:	e86080e7          	jalr	-378(ra) # 800022d6 <test_edge_cases>
    
    printf("All comprehensive tests completed!\n");
    80002458:	00005517          	auipc	a0,0x5
    8000245c:	d9850513          	add	a0,a0,-616 # 800071f0 <userret+0x118c>
    80002460:	ffffe097          	auipc	ra,0xffffe
    80002464:	786080e7          	jalr	1926(ra) # 80000be6 <printf>
    80002468:	0001                	nop
    8000246a:	60a2                	ld	ra,8(sp)
    8000246c:	6402                	ld	s0,0(sp)
    8000246e:	0141                	add	sp,sp,16
    80002470:	8082                	ret

0000000080002472 <trap_init>:

static interrupt_handler_t interrupt_handlers[16] = {0};

// ==================== 初始化中断系统 ====================
void trap_init(void)
{
    80002472:	7179                	add	sp,sp,-48
    80002474:	f406                	sd	ra,40(sp)
    80002476:	f022                	sd	s0,32(sp)
    80002478:	1800                	add	s0,sp,48
    printf("Initializing trap system...\n");
    8000247a:	00005517          	auipc	a0,0x5
    8000247e:	d9e50513          	add	a0,a0,-610 # 80007218 <userret+0x11b4>
    80002482:	ffffe097          	auipc	ra,0xffffe
    80002486:	764080e7          	jalr	1892(ra) # 80000be6 <printf>
    
    for(int i = 0; i < 16; i++) {
    8000248a:	fe042623          	sw	zero,-20(s0)
    8000248e:	a815                	j	800024c2 <trap_init+0x50>
        interrupt_handlers[i] = 0;
    80002490:	0000c717          	auipc	a4,0xc
    80002494:	c1070713          	add	a4,a4,-1008 # 8000e0a0 <interrupt_handlers>
    80002498:	fec42783          	lw	a5,-20(s0)
    8000249c:	078e                	sll	a5,a5,0x3
    8000249e:	97ba                	add	a5,a5,a4
    800024a0:	0007b023          	sd	zero,0(a5)
        interrupt_counts[i] = 0;
    800024a4:	0000c717          	auipc	a4,0xc
    800024a8:	b7470713          	add	a4,a4,-1164 # 8000e018 <interrupt_counts>
    800024ac:	fec42783          	lw	a5,-20(s0)
    800024b0:	078e                	sll	a5,a5,0x3
    800024b2:	97ba                	add	a5,a5,a4
    800024b4:	0007b023          	sd	zero,0(a5)
    for(int i = 0; i < 16; i++) {
    800024b8:	fec42783          	lw	a5,-20(s0)
    800024bc:	2785                	addw	a5,a5,1
    800024be:	fef42623          	sw	a5,-20(s0)
    800024c2:	fec42783          	lw	a5,-20(s0)
    800024c6:	0007871b          	sext.w	a4,a5
    800024ca:	47bd                	li	a5,15
    800024cc:	fce7d2e3          	bge	a5,a4,80002490 <trap_init+0x1e>
    }
    
    // 设置内核态陷阱向量
    w_stvec((uint64)kernelvec);
    800024d0:	00001797          	auipc	a5,0x1
    800024d4:	07078793          	add	a5,a5,112 # 80003540 <kernelvec>
    800024d8:	10579073          	csrw	stvec,a5
    
    printf("Set stvec to %p\n", (void*)kernelvec);
    800024dc:	00001597          	auipc	a1,0x1
    800024e0:	06458593          	add	a1,a1,100 # 80003540 <kernelvec>
    800024e4:	00005517          	auipc	a0,0x5
    800024e8:	d5450513          	add	a0,a0,-684 # 80007238 <userret+0x11d4>
    800024ec:	ffffe097          	auipc	ra,0xffffe
    800024f0:	6fa080e7          	jalr	1786(ra) # 80000be6 <printf>
    
    // 使能中断
    w_sie(r_sie() | SIE_SEIE | SIE_STIE | SIE_SSIE);
    800024f4:	104027f3          	csrr	a5,sie
    800024f8:	fef43023          	sd	a5,-32(s0)
    800024fc:	fe043783          	ld	a5,-32(s0)
    80002500:	2227e793          	or	a5,a5,546
    80002504:	10479073          	csrw	sie,a5
    w_sstatus(r_sstatus() | SSTATUS_SIE);
    80002508:	100027f3          	csrr	a5,sstatus
    8000250c:	fcf43c23          	sd	a5,-40(s0)
    80002510:	fd843783          	ld	a5,-40(s0)
    80002514:	0027e793          	or	a5,a5,2
    80002518:	10079073          	csrw	sstatus,a5
    
    printf("Trap system initialized\n");
    8000251c:	00005517          	auipc	a0,0x5
    80002520:	d3450513          	add	a0,a0,-716 # 80007250 <userret+0x11ec>
    80002524:	ffffe097          	auipc	ra,0xffffe
    80002528:	6c2080e7          	jalr	1730(ra) # 80000be6 <printf>
}
    8000252c:	0001                	nop
    8000252e:	70a2                	ld	ra,40(sp)
    80002530:	7402                	ld	s0,32(sp)
    80002532:	6145                	add	sp,sp,48
    80002534:	8082                	ret

0000000080002536 <register_interrupt>:

// ==================== 注册中断处理函数 ====================
void register_interrupt(int irq, interrupt_handler_t handler)
{
    80002536:	1101                	add	sp,sp,-32
    80002538:	ec06                	sd	ra,24(sp)
    8000253a:	e822                	sd	s0,16(sp)
    8000253c:	1000                	add	s0,sp,32
    8000253e:	87aa                	mv	a5,a0
    80002540:	feb43023          	sd	a1,-32(s0)
    80002544:	fef42623          	sw	a5,-20(s0)
    if(irq < 0 || irq >= 16) {
    80002548:	fec42783          	lw	a5,-20(s0)
    8000254c:	2781                	sext.w	a5,a5
    8000254e:	0007c963          	bltz	a5,80002560 <register_interrupt+0x2a>
    80002552:	fec42783          	lw	a5,-20(s0)
    80002556:	0007871b          	sext.w	a4,a5
    8000255a:	47bd                	li	a5,15
    8000255c:	00e7de63          	bge	a5,a4,80002578 <register_interrupt+0x42>
        printf("register_interrupt: invalid IRQ %d\n", irq);
    80002560:	fec42783          	lw	a5,-20(s0)
    80002564:	85be                	mv	a1,a5
    80002566:	00005517          	auipc	a0,0x5
    8000256a:	d0a50513          	add	a0,a0,-758 # 80007270 <userret+0x120c>
    8000256e:	ffffe097          	auipc	ra,0xffffe
    80002572:	678080e7          	jalr	1656(ra) # 80000be6 <printf>
        return;
    80002576:	a03d                	j	800025a4 <register_interrupt+0x6e>
    }
    
    interrupt_handlers[irq] = handler;
    80002578:	0000c717          	auipc	a4,0xc
    8000257c:	b2870713          	add	a4,a4,-1240 # 8000e0a0 <interrupt_handlers>
    80002580:	fec42783          	lw	a5,-20(s0)
    80002584:	078e                	sll	a5,a5,0x3
    80002586:	97ba                	add	a5,a5,a4
    80002588:	fe043703          	ld	a4,-32(s0)
    8000258c:	e398                	sd	a4,0(a5)
    printf("Registered handler for IRQ %d\n", irq);
    8000258e:	fec42783          	lw	a5,-20(s0)
    80002592:	85be                	mv	a1,a5
    80002594:	00005517          	auipc	a0,0x5
    80002598:	d0450513          	add	a0,a0,-764 # 80007298 <userret+0x1234>
    8000259c:	ffffe097          	auipc	ra,0xffffe
    800025a0:	64a080e7          	jalr	1610(ra) # 80000be6 <printf>
}
    800025a4:	60e2                	ld	ra,24(sp)
    800025a6:	6442                	ld	s0,16(sp)
    800025a8:	6105                	add	sp,sp,32
    800025aa:	8082                	ret

00000000800025ac <devintr>:

// ==================== 设备中断处理 ====================
static int devintr(void)
{
    800025ac:	7179                	add	sp,sp,-48
    800025ae:	f406                	sd	ra,40(sp)
    800025b0:	f022                	sd	s0,32(sp)
    800025b2:	1800                	add	s0,sp,48
    uint64 scause = r_scause();
    800025b4:	142027f3          	csrr	a5,scause
    800025b8:	fef43423          	sd	a5,-24(s0)
    800025bc:	fe843783          	ld	a5,-24(s0)
    800025c0:	fef43023          	sd	a5,-32(s0)
    
    if((scause & 0x8000000000000000L) == 0) {
    800025c4:	fe043783          	ld	a5,-32(s0)
    800025c8:	0007c463          	bltz	a5,800025d0 <devintr+0x24>
        return 0;  // 不是中断
    800025cc:	4781                	li	a5,0
    800025ce:	a8d5                	j	800026c2 <devintr+0x116>
    }
    
    scause = scause & 0xff;
    800025d0:	fe043783          	ld	a5,-32(s0)
    800025d4:	0ff7f793          	zext.b	a5,a5
    800025d8:	fef43023          	sd	a5,-32(s0)
    
    if(scause == IRQ_S_TIMER) {
    800025dc:	fe043703          	ld	a4,-32(s0)
    800025e0:	4795                	li	a5,5
    800025e2:	02f71c63          	bne	a4,a5,8000261a <devintr+0x6e>
        interrupt_counts[IRQ_S_TIMER]++;
    800025e6:	0000c797          	auipc	a5,0xc
    800025ea:	a3278793          	add	a5,a5,-1486 # 8000e018 <interrupt_counts>
    800025ee:	779c                	ld	a5,40(a5)
    800025f0:	00178713          	add	a4,a5,1
    800025f4:	0000c797          	auipc	a5,0xc
    800025f8:	a2478793          	add	a5,a5,-1500 # 8000e018 <interrupt_counts>
    800025fc:	f798                	sd	a4,40(a5)
        
        if(interrupt_handlers[IRQ_S_TIMER]) {
    800025fe:	0000c797          	auipc	a5,0xc
    80002602:	aa278793          	add	a5,a5,-1374 # 8000e0a0 <interrupt_handlers>
    80002606:	779c                	ld	a5,40(a5)
    80002608:	c799                	beqz	a5,80002616 <devintr+0x6a>
            interrupt_handlers[IRQ_S_TIMER]();
    8000260a:	0000c797          	auipc	a5,0xc
    8000260e:	a9678793          	add	a5,a5,-1386 # 8000e0a0 <interrupt_handlers>
    80002612:	779c                	ld	a5,40(a5)
    80002614:	9782                	jalr	a5
        }
        
        return 1;
    80002616:	4785                	li	a5,1
    80002618:	a06d                	j	800026c2 <devintr+0x116>
        
    } else if(scause == IRQ_S_SOFT) {
    8000261a:	fe043703          	ld	a4,-32(s0)
    8000261e:	4785                	li	a5,1
    80002620:	06f71163          	bne	a4,a5,80002682 <devintr+0xd6>
        interrupt_counts[IRQ_S_SOFT]++;
    80002624:	0000c797          	auipc	a5,0xc
    80002628:	9f478793          	add	a5,a5,-1548 # 8000e018 <interrupt_counts>
    8000262c:	679c                	ld	a5,8(a5)
    8000262e:	00178713          	add	a4,a5,1
    80002632:	0000c797          	auipc	a5,0xc
    80002636:	9e678793          	add	a5,a5,-1562 # 8000e018 <interrupt_counts>
    8000263a:	e798                	sd	a4,8(a5)
        
        w_sip(r_sip() & ~2);
    8000263c:	144027f3          	csrr	a5,sip
    80002640:	fcf43c23          	sd	a5,-40(s0)
    80002644:	fd843783          	ld	a5,-40(s0)
    80002648:	9bf5                	and	a5,a5,-3
    8000264a:	14479073          	csrw	sip,a5
        
        if(interrupt_handlers[IRQ_S_TIMER]) {
    8000264e:	0000c797          	auipc	a5,0xc
    80002652:	a5278793          	add	a5,a5,-1454 # 8000e0a0 <interrupt_handlers>
    80002656:	779c                	ld	a5,40(a5)
    80002658:	c39d                	beqz	a5,8000267e <devintr+0xd2>
            interrupt_handlers[IRQ_S_TIMER]();
    8000265a:	0000c797          	auipc	a5,0xc
    8000265e:	a4678793          	add	a5,a5,-1466 # 8000e0a0 <interrupt_handlers>
    80002662:	779c                	ld	a5,40(a5)
    80002664:	9782                	jalr	a5
            interrupt_counts[IRQ_S_TIMER]++;
    80002666:	0000c797          	auipc	a5,0xc
    8000266a:	9b278793          	add	a5,a5,-1614 # 8000e018 <interrupt_counts>
    8000266e:	779c                	ld	a5,40(a5)
    80002670:	00178713          	add	a4,a5,1
    80002674:	0000c797          	auipc	a5,0xc
    80002678:	9a478793          	add	a5,a5,-1628 # 8000e018 <interrupt_counts>
    8000267c:	f798                	sd	a4,40(a5)
        }
        
        return 1;
    8000267e:	4785                	li	a5,1
    80002680:	a089                	j	800026c2 <devintr+0x116>
        
    } else if(scause == IRQ_S_EXT) {
    80002682:	fe043703          	ld	a4,-32(s0)
    80002686:	47a5                	li	a5,9
    80002688:	02f71c63          	bne	a4,a5,800026c0 <devintr+0x114>
        interrupt_counts[IRQ_S_EXT]++;
    8000268c:	0000c797          	auipc	a5,0xc
    80002690:	98c78793          	add	a5,a5,-1652 # 8000e018 <interrupt_counts>
    80002694:	67bc                	ld	a5,72(a5)
    80002696:	00178713          	add	a4,a5,1
    8000269a:	0000c797          	auipc	a5,0xc
    8000269e:	97e78793          	add	a5,a5,-1666 # 8000e018 <interrupt_counts>
    800026a2:	e7b8                	sd	a4,72(a5)
        
        if(interrupt_handlers[IRQ_S_EXT]) {
    800026a4:	0000c797          	auipc	a5,0xc
    800026a8:	9fc78793          	add	a5,a5,-1540 # 8000e0a0 <interrupt_handlers>
    800026ac:	67bc                	ld	a5,72(a5)
    800026ae:	c799                	beqz	a5,800026bc <devintr+0x110>
            interrupt_handlers[IRQ_S_EXT]();
    800026b0:	0000c797          	auipc	a5,0xc
    800026b4:	9f078793          	add	a5,a5,-1552 # 8000e0a0 <interrupt_handlers>
    800026b8:	67bc                	ld	a5,72(a5)
    800026ba:	9782                	jalr	a5
        }
        
        return 1;
    800026bc:	4785                	li	a5,1
    800026be:	a011                	j	800026c2 <devintr+0x116>
    }
    
    return 0;
    800026c0:	4781                	li	a5,0
}
    800026c2:	853e                	mv	a0,a5
    800026c4:	70a2                	ld	ra,40(sp)
    800026c6:	7402                	ld	s0,32(sp)
    800026c8:	6145                	add	sp,sp,48
    800026ca:	8082                	ret

00000000800026cc <handle_syscall>:

// ==================== 系统调用处理 ====================
void handle_syscall(struct trapframe *tf) {
    800026cc:	7179                	add	sp,sp,-48
    800026ce:	f406                	sd	ra,40(sp)
    800026d0:	f022                	sd	s0,32(sp)
    800026d2:	1800                	add	s0,sp,48
    800026d4:	fca43c23          	sd	a0,-40(s0)
    struct proc *p = myproc();
    800026d8:	00001097          	auipc	ra,0x1
    800026dc:	300080e7          	jalr	768(ra) # 800039d8 <myproc>
    800026e0:	fea43423          	sd	a0,-24(s0)
    if(p == 0) {
    800026e4:	fe843783          	ld	a5,-24(s0)
    800026e8:	eb89                	bnez	a5,800026fa <handle_syscall+0x2e>
        panic("handle_syscall: no process");
    800026ea:	00005517          	auipc	a0,0x5
    800026ee:	bce50513          	add	a0,a0,-1074 # 800072b8 <userret+0x1254>
    800026f2:	fffff097          	auipc	ra,0xfffff
    800026f6:	89a080e7          	jalr	-1894(ra) # 80000f8c <panic>
    }
    
    // 将中断栈的 trapframe 复制到进程的 trapframe
    if(p->trapframe) {
    800026fa:	fe843783          	ld	a5,-24(s0)
    800026fe:	6bdc                	ld	a5,144(a5)
    80002700:	c385                	beqz	a5,80002720 <handle_syscall+0x54>
        *p->trapframe = *tf;
    80002702:	fe843783          	ld	a5,-24(s0)
    80002706:	6bd8                	ld	a4,144(a5)
    80002708:	fd843783          	ld	a5,-40(s0)
    8000270c:	86be                	mv	a3,a5
    8000270e:	12000793          	li	a5,288
    80002712:	863e                	mv	a2,a5
    80002714:	85b6                	mv	a1,a3
    80002716:	853a                	mv	a0,a4
    80002718:	fffff097          	auipc	ra,0xfffff
    8000271c:	a56080e7          	jalr	-1450(ra) # 8000116e <memcpy>
    }
    
    // 调用系统调用分发器
    extern void syscall(struct trapframe *tf);
    syscall(p->trapframe);
    80002720:	fe843783          	ld	a5,-24(s0)
    80002724:	6bdc                	ld	a5,144(a5)
    80002726:	853e                	mv	a0,a5
    80002728:	00002097          	auipc	ra,0x2
    8000272c:	4d4080e7          	jalr	1236(ra) # 80004bfc <syscall>
    
    // 将修改后的 trapframe 复制回中断栈
    if(p->trapframe) {
    80002730:	fe843783          	ld	a5,-24(s0)
    80002734:	6bdc                	ld	a5,144(a5)
    80002736:	c385                	beqz	a5,80002756 <handle_syscall+0x8a>
        *tf = *p->trapframe;
    80002738:	fe843783          	ld	a5,-24(s0)
    8000273c:	6bdc                	ld	a5,144(a5)
    8000273e:	fd843703          	ld	a4,-40(s0)
    80002742:	86be                	mv	a3,a5
    80002744:	12000793          	li	a5,288
    80002748:	863e                	mv	a2,a5
    8000274a:	85b6                	mv	a1,a3
    8000274c:	853a                	mv	a0,a4
    8000274e:	fffff097          	auipc	ra,0xfffff
    80002752:	a20080e7          	jalr	-1504(ra) # 8000116e <memcpy>
    }
}
    80002756:	0001                	nop
    80002758:	70a2                	ld	ra,40(sp)
    8000275a:	7402                	ld	s0,32(sp)
    8000275c:	6145                	add	sp,sp,48
    8000275e:	8082                	ret

0000000080002760 <handle_instruction_page_fault>:

// ==================== 指令页故障处理 ====================
void handle_instruction_page_fault(struct trapframe *tf) {
    80002760:	7179                	add	sp,sp,-48
    80002762:	f406                	sd	ra,40(sp)
    80002764:	f022                	sd	s0,32(sp)
    80002766:	1800                	add	s0,sp,48
    80002768:	fca43c23          	sd	a0,-40(s0)
    uint64 fault_addr = r_stval();
    8000276c:	143027f3          	csrr	a5,stval
    80002770:	fef43423          	sd	a5,-24(s0)
    80002774:	fe843783          	ld	a5,-24(s0)
    80002778:	fef43023          	sd	a5,-32(s0)
    
    printf("\n=== Instruction Page Fault ===\n");
    8000277c:	00005517          	auipc	a0,0x5
    80002780:	b5c50513          	add	a0,a0,-1188 # 800072d8 <userret+0x1274>
    80002784:	ffffe097          	auipc	ra,0xffffe
    80002788:	462080e7          	jalr	1122(ra) # 80000be6 <printf>
    printf("Fault address: %p\n", (void*)fault_addr);
    8000278c:	fe043783          	ld	a5,-32(s0)
    80002790:	85be                	mv	a1,a5
    80002792:	00005517          	auipc	a0,0x5
    80002796:	b6e50513          	add	a0,a0,-1170 # 80007300 <userret+0x129c>
    8000279a:	ffffe097          	auipc	ra,0xffffe
    8000279e:	44c080e7          	jalr	1100(ra) # 80000be6 <printf>
    printf("PC: %p\n", (void*)tf->sepc);
    800027a2:	fd843783          	ld	a5,-40(s0)
    800027a6:	7ffc                	ld	a5,248(a5)
    800027a8:	85be                	mv	a1,a5
    800027aa:	00005517          	auipc	a0,0x5
    800027ae:	b6e50513          	add	a0,a0,-1170 # 80007318 <userret+0x12b4>
    800027b2:	ffffe097          	auipc	ra,0xffffe
    800027b6:	434080e7          	jalr	1076(ra) # 80000be6 <printf>
    
    if(fault_addr >= KERNBASE) {
    800027ba:	fe043703          	ld	a4,-32(s0)
    800027be:	800007b7          	lui	a5,0x80000
    800027c2:	fff7c793          	not	a5,a5
    800027c6:	00e7fa63          	bgeu	a5,a4,800027da <handle_instruction_page_fault+0x7a>
        panic("Instruction page fault in kernel space");
    800027ca:	00005517          	auipc	a0,0x5
    800027ce:	b5650513          	add	a0,a0,-1194 # 80007320 <userret+0x12bc>
    800027d2:	ffffe097          	auipc	ra,0xffffe
    800027d6:	7ba080e7          	jalr	1978(ra) # 80000f8c <panic>
    }
    
    printf("TODO: Implement demand paging for instruction fault\n");
    800027da:	00005517          	auipc	a0,0x5
    800027de:	b6e50513          	add	a0,a0,-1170 # 80007348 <userret+0x12e4>
    800027e2:	ffffe097          	auipc	ra,0xffffe
    800027e6:	404080e7          	jalr	1028(ra) # 80000be6 <printf>
    panic("Instruction page fault not handled");
    800027ea:	00005517          	auipc	a0,0x5
    800027ee:	b9650513          	add	a0,a0,-1130 # 80007380 <userret+0x131c>
    800027f2:	ffffe097          	auipc	ra,0xffffe
    800027f6:	79a080e7          	jalr	1946(ra) # 80000f8c <panic>
}
    800027fa:	0001                	nop
    800027fc:	70a2                	ld	ra,40(sp)
    800027fe:	7402                	ld	s0,32(sp)
    80002800:	6145                	add	sp,sp,48
    80002802:	8082                	ret

0000000080002804 <handle_load_page_fault>:

// ==================== 加载页故障处理 ====================
void handle_load_page_fault(struct trapframe *tf) {
    80002804:	7179                	add	sp,sp,-48
    80002806:	f406                	sd	ra,40(sp)
    80002808:	f022                	sd	s0,32(sp)
    8000280a:	1800                	add	s0,sp,48
    8000280c:	fca43c23          	sd	a0,-40(s0)
    uint64 fault_addr = r_stval();
    80002810:	143027f3          	csrr	a5,stval
    80002814:	fef43423          	sd	a5,-24(s0)
    80002818:	fe843783          	ld	a5,-24(s0)
    8000281c:	fef43023          	sd	a5,-32(s0)
    
    printf("\n=== Load Page Fault ===\n");
    80002820:	00005517          	auipc	a0,0x5
    80002824:	b8850513          	add	a0,a0,-1144 # 800073a8 <userret+0x1344>
    80002828:	ffffe097          	auipc	ra,0xffffe
    8000282c:	3be080e7          	jalr	958(ra) # 80000be6 <printf>
    printf("Fault address: %p\n", (void*)fault_addr);
    80002830:	fe043783          	ld	a5,-32(s0)
    80002834:	85be                	mv	a1,a5
    80002836:	00005517          	auipc	a0,0x5
    8000283a:	aca50513          	add	a0,a0,-1334 # 80007300 <userret+0x129c>
    8000283e:	ffffe097          	auipc	ra,0xffffe
    80002842:	3a8080e7          	jalr	936(ra) # 80000be6 <printf>
    printf("PC: %p\n", (void*)tf->sepc);
    80002846:	fd843783          	ld	a5,-40(s0)
    8000284a:	7ffc                	ld	a5,248(a5)
    8000284c:	85be                	mv	a1,a5
    8000284e:	00005517          	auipc	a0,0x5
    80002852:	aca50513          	add	a0,a0,-1334 # 80007318 <userret+0x12b4>
    80002856:	ffffe097          	auipc	ra,0xffffe
    8000285a:	390080e7          	jalr	912(ra) # 80000be6 <printf>
    printf("Tried to read from unmapped address\n");
    8000285e:	00005517          	auipc	a0,0x5
    80002862:	b6a50513          	add	a0,a0,-1174 # 800073c8 <userret+0x1364>
    80002866:	ffffe097          	auipc	ra,0xffffe
    8000286a:	380080e7          	jalr	896(ra) # 80000be6 <printf>
    
    panic("Load page fault");
    8000286e:	00005517          	auipc	a0,0x5
    80002872:	b8250513          	add	a0,a0,-1150 # 800073f0 <userret+0x138c>
    80002876:	ffffe097          	auipc	ra,0xffffe
    8000287a:	716080e7          	jalr	1814(ra) # 80000f8c <panic>
}
    8000287e:	0001                	nop
    80002880:	70a2                	ld	ra,40(sp)
    80002882:	7402                	ld	s0,32(sp)
    80002884:	6145                	add	sp,sp,48
    80002886:	8082                	ret

0000000080002888 <handle_store_page_fault>:

// ==================== 存储页故障处理 ====================
void handle_store_page_fault(struct trapframe *tf) {
    80002888:	7179                	add	sp,sp,-48
    8000288a:	f406                	sd	ra,40(sp)
    8000288c:	f022                	sd	s0,32(sp)
    8000288e:	1800                	add	s0,sp,48
    80002890:	fca43c23          	sd	a0,-40(s0)
    uint64 fault_addr = r_stval();
    80002894:	143027f3          	csrr	a5,stval
    80002898:	fef43423          	sd	a5,-24(s0)
    8000289c:	fe843783          	ld	a5,-24(s0)
    800028a0:	fef43023          	sd	a5,-32(s0)
    
    printf("\n=== Store Page Fault ===\n");
    800028a4:	00005517          	auipc	a0,0x5
    800028a8:	b5c50513          	add	a0,a0,-1188 # 80007400 <userret+0x139c>
    800028ac:	ffffe097          	auipc	ra,0xffffe
    800028b0:	33a080e7          	jalr	826(ra) # 80000be6 <printf>
    printf("Fault address: %p\n", (void*)fault_addr);
    800028b4:	fe043783          	ld	a5,-32(s0)
    800028b8:	85be                	mv	a1,a5
    800028ba:	00005517          	auipc	a0,0x5
    800028be:	a4650513          	add	a0,a0,-1466 # 80007300 <userret+0x129c>
    800028c2:	ffffe097          	auipc	ra,0xffffe
    800028c6:	324080e7          	jalr	804(ra) # 80000be6 <printf>
    printf("PC: %p\n", (void*)tf->sepc);
    800028ca:	fd843783          	ld	a5,-40(s0)
    800028ce:	7ffc                	ld	a5,248(a5)
    800028d0:	85be                	mv	a1,a5
    800028d2:	00005517          	auipc	a0,0x5
    800028d6:	a4650513          	add	a0,a0,-1466 # 80007318 <userret+0x12b4>
    800028da:	ffffe097          	auipc	ra,0xffffe
    800028de:	30c080e7          	jalr	780(ra) # 80000be6 <printf>
    printf("Tried to write to unmapped or read-only address\n");
    800028e2:	00005517          	auipc	a0,0x5
    800028e6:	b3e50513          	add	a0,a0,-1218 # 80007420 <userret+0x13bc>
    800028ea:	ffffe097          	auipc	ra,0xffffe
    800028ee:	2fc080e7          	jalr	764(ra) # 80000be6 <printf>
    
    if(fault_addr >= KERNBASE && fault_addr < (uint64)etext) {
    800028f2:	fe043703          	ld	a4,-32(s0)
    800028f6:	800007b7          	lui	a5,0x80000
    800028fa:	fff7c793          	not	a5,a5
    800028fe:	02e7f263          	bgeu	a5,a4,80002922 <handle_store_page_fault+0x9a>
    80002902:	00003797          	auipc	a5,0x3
    80002906:	6fe78793          	add	a5,a5,1790 # 80006000 <etext>
    8000290a:	fe043703          	ld	a4,-32(s0)
    8000290e:	00f77a63          	bgeu	a4,a5,80002922 <handle_store_page_fault+0x9a>
        printf("Attempted to write to read-only kernel text segment!\n");
    80002912:	00005517          	auipc	a0,0x5
    80002916:	b4650513          	add	a0,a0,-1210 # 80007458 <userret+0x13f4>
    8000291a:	ffffe097          	auipc	ra,0xffffe
    8000291e:	2cc080e7          	jalr	716(ra) # 80000be6 <printf>
    }
    
    panic("Store page fault");
    80002922:	00005517          	auipc	a0,0x5
    80002926:	b6e50513          	add	a0,a0,-1170 # 80007490 <userret+0x142c>
    8000292a:	ffffe097          	auipc	ra,0xffffe
    8000292e:	662080e7          	jalr	1634(ra) # 80000f8c <panic>
}
    80002932:	0001                	nop
    80002934:	70a2                	ld	ra,40(sp)
    80002936:	7402                	ld	s0,32(sp)
    80002938:	6145                	add	sp,sp,48
    8000293a:	8082                	ret

000000008000293c <handle_exception>:

// ==================== 统一异常处理入口 ====================
void handle_exception(struct trapframe *tf) {
    8000293c:	7159                	add	sp,sp,-112
    8000293e:	f486                	sd	ra,104(sp)
    80002940:	f0a2                	sd	s0,96(sp)
    80002942:	eca6                	sd	s1,88(sp)
    80002944:	1880                	add	s0,sp,112
    80002946:	f8a43c23          	sd	a0,-104(s0)
    uint64 cause = r_scause();
    8000294a:	142027f3          	csrr	a5,scause
    8000294e:	fcf43c23          	sd	a5,-40(s0)
    80002952:	fd843783          	ld	a5,-40(s0)
    80002956:	fcf43823          	sd	a5,-48(s0)
    
    printf("\n[Exception Handler] cause=%d (%s)\n", 
    8000295a:	fd043783          	ld	a5,-48(s0)
    8000295e:	0007849b          	sext.w	s1,a5
    80002962:	fd043503          	ld	a0,-48(s0)
    80002966:	00001097          	auipc	ra,0x1
    8000296a:	89a080e7          	jalr	-1894(ra) # 80003200 <trap_cause_name>
    8000296e:	87aa                	mv	a5,a0
    80002970:	863e                	mv	a2,a5
    80002972:	85a6                	mv	a1,s1
    80002974:	00005517          	auipc	a0,0x5
    80002978:	b3450513          	add	a0,a0,-1228 # 800074a8 <userret+0x1444>
    8000297c:	ffffe097          	auipc	ra,0xffffe
    80002980:	26a080e7          	jalr	618(ra) # 80000be6 <printf>
           (int)cause, trap_cause_name(cause));
    
    switch(cause) {
    80002984:	fd043703          	ld	a4,-48(s0)
    80002988:	47bd                	li	a5,15
    8000298a:	1ce7e563          	bltu	a5,a4,80002b54 <handle_exception+0x218>
    8000298e:	fd043783          	ld	a5,-48(s0)
    80002992:	00279713          	sll	a4,a5,0x2
    80002996:	00005797          	auipc	a5,0x5
    8000299a:	cde78793          	add	a5,a5,-802 # 80007674 <userret+0x1610>
    8000299e:	97ba                	add	a5,a5,a4
    800029a0:	439c                	lw	a5,0(a5)
    800029a2:	0007871b          	sext.w	a4,a5
    800029a6:	00005797          	auipc	a5,0x5
    800029aa:	cce78793          	add	a5,a5,-818 # 80007674 <userret+0x1610>
    800029ae:	97ba                	add	a5,a5,a4
    800029b0:	8782                	jr	a5
        case CAUSE_USER_ECALL:
        case CAUSE_SUPERVISOR_ECALL:
            handle_syscall(tf);
    800029b2:	f9843503          	ld	a0,-104(s0)
    800029b6:	00000097          	auipc	ra,0x0
    800029ba:	d16080e7          	jalr	-746(ra) # 800026cc <handle_syscall>
            break;
    800029be:	a419                	j	80002bc4 <handle_exception+0x288>
            
        case CAUSE_FETCH_PAGE_FAULT:
            handle_instruction_page_fault(tf);
    800029c0:	f9843503          	ld	a0,-104(s0)
    800029c4:	00000097          	auipc	ra,0x0
    800029c8:	d9c080e7          	jalr	-612(ra) # 80002760 <handle_instruction_page_fault>
            break;
    800029cc:	aae5                	j	80002bc4 <handle_exception+0x288>
            
        case CAUSE_LOAD_PAGE_FAULT:
            handle_load_page_fault(tf);
    800029ce:	f9843503          	ld	a0,-104(s0)
    800029d2:	00000097          	auipc	ra,0x0
    800029d6:	e32080e7          	jalr	-462(ra) # 80002804 <handle_load_page_fault>
            break;
    800029da:	a2ed                	j	80002bc4 <handle_exception+0x288>
            
        case CAUSE_STORE_PAGE_FAULT:
            handle_store_page_fault(tf);
    800029dc:	f9843503          	ld	a0,-104(s0)
    800029e0:	00000097          	auipc	ra,0x0
    800029e4:	ea8080e7          	jalr	-344(ra) # 80002888 <handle_store_page_fault>
            break;
    800029e8:	aaf1                	j	80002bc4 <handle_exception+0x288>
            
        case CAUSE_ILLEGAL_INSTRUCTION:
            printf("\n=== Illegal Instruction ===\n");
    800029ea:	00005517          	auipc	a0,0x5
    800029ee:	ae650513          	add	a0,a0,-1306 # 800074d0 <userret+0x146c>
    800029f2:	ffffe097          	auipc	ra,0xffffe
    800029f6:	1f4080e7          	jalr	500(ra) # 80000be6 <printf>
            printf("PC: %p\n", (void*)tf->sepc);
    800029fa:	f9843783          	ld	a5,-104(s0)
    800029fe:	7ffc                	ld	a5,248(a5)
    80002a00:	85be                	mv	a1,a5
    80002a02:	00005517          	auipc	a0,0x5
    80002a06:	91650513          	add	a0,a0,-1770 # 80007318 <userret+0x12b4>
    80002a0a:	ffffe097          	auipc	ra,0xffffe
    80002a0e:	1dc080e7          	jalr	476(ra) # 80000be6 <printf>
            printf("Instruction value: %p\n", (void*)r_stval());
    80002a12:	143027f3          	csrr	a5,stval
    80002a16:	faf43c23          	sd	a5,-72(s0)
    80002a1a:	fb843783          	ld	a5,-72(s0)
    80002a1e:	85be                	mv	a1,a5
    80002a20:	00005517          	auipc	a0,0x5
    80002a24:	ad050513          	add	a0,a0,-1328 # 800074f0 <userret+0x148c>
    80002a28:	ffffe097          	auipc	ra,0xffffe
    80002a2c:	1be080e7          	jalr	446(ra) # 80000be6 <printf>
            panic("Illegal instruction");
    80002a30:	00005517          	auipc	a0,0x5
    80002a34:	ad850513          	add	a0,a0,-1320 # 80007508 <userret+0x14a4>
    80002a38:	ffffe097          	auipc	ra,0xffffe
    80002a3c:	554080e7          	jalr	1364(ra) # 80000f8c <panic>
            break;
    80002a40:	a251                	j	80002bc4 <handle_exception+0x288>
            
        case CAUSE_BREAKPOINT:
            printf("\n=== Breakpoint ===\n");
    80002a42:	00005517          	auipc	a0,0x5
    80002a46:	ade50513          	add	a0,a0,-1314 # 80007520 <userret+0x14bc>
    80002a4a:	ffffe097          	auipc	ra,0xffffe
    80002a4e:	19c080e7          	jalr	412(ra) # 80000be6 <printf>
            printf("PC: %p\n", (void*)tf->sepc);
    80002a52:	f9843783          	ld	a5,-104(s0)
    80002a56:	7ffc                	ld	a5,248(a5)
    80002a58:	85be                	mv	a1,a5
    80002a5a:	00005517          	auipc	a0,0x5
    80002a5e:	8be50513          	add	a0,a0,-1858 # 80007318 <userret+0x12b4>
    80002a62:	ffffe097          	auipc	ra,0xffffe
    80002a66:	184080e7          	jalr	388(ra) # 80000be6 <printf>
            tf->sepc += 2;
    80002a6a:	f9843783          	ld	a5,-104(s0)
    80002a6e:	7ffc                	ld	a5,248(a5)
    80002a70:	00278713          	add	a4,a5,2
    80002a74:	f9843783          	ld	a5,-104(s0)
    80002a78:	fff8                	sd	a4,248(a5)
            printf("Breakpoint handled, continuing from %p\n", (void*)tf->sepc);
    80002a7a:	f9843783          	ld	a5,-104(s0)
    80002a7e:	7ffc                	ld	a5,248(a5)
    80002a80:	85be                	mv	a1,a5
    80002a82:	00005517          	auipc	a0,0x5
    80002a86:	ab650513          	add	a0,a0,-1354 # 80007538 <userret+0x14d4>
    80002a8a:	ffffe097          	auipc	ra,0xffffe
    80002a8e:	15c080e7          	jalr	348(ra) # 80000be6 <printf>
            break;
    80002a92:	aa0d                	j	80002bc4 <handle_exception+0x288>
            
        case CAUSE_MISALIGNED_FETCH:
            printf("\n=== Misaligned Instruction Fetch ===\n");
    80002a94:	00005517          	auipc	a0,0x5
    80002a98:	acc50513          	add	a0,a0,-1332 # 80007560 <userret+0x14fc>
    80002a9c:	ffffe097          	auipc	ra,0xffffe
    80002aa0:	14a080e7          	jalr	330(ra) # 80000be6 <printf>
            printf("Address: %p\n", (void*)r_stval());
    80002aa4:	143027f3          	csrr	a5,stval
    80002aa8:	faf43823          	sd	a5,-80(s0)
    80002aac:	fb043783          	ld	a5,-80(s0)
    80002ab0:	85be                	mv	a1,a5
    80002ab2:	00005517          	auipc	a0,0x5
    80002ab6:	ad650513          	add	a0,a0,-1322 # 80007588 <userret+0x1524>
    80002aba:	ffffe097          	auipc	ra,0xffffe
    80002abe:	12c080e7          	jalr	300(ra) # 80000be6 <printf>
            panic("Misaligned instruction fetch");
    80002ac2:	00005517          	auipc	a0,0x5
    80002ac6:	ad650513          	add	a0,a0,-1322 # 80007598 <userret+0x1534>
    80002aca:	ffffe097          	auipc	ra,0xffffe
    80002ace:	4c2080e7          	jalr	1218(ra) # 80000f8c <panic>
            break;
    80002ad2:	a8cd                	j	80002bc4 <handle_exception+0x288>
            
        case CAUSE_MISALIGNED_LOAD:
            printf("\n=== Misaligned Load ===\n");
    80002ad4:	00005517          	auipc	a0,0x5
    80002ad8:	ae450513          	add	a0,a0,-1308 # 800075b8 <userret+0x1554>
    80002adc:	ffffe097          	auipc	ra,0xffffe
    80002ae0:	10a080e7          	jalr	266(ra) # 80000be6 <printf>
            printf("Address: %p\n", (void*)r_stval());
    80002ae4:	143027f3          	csrr	a5,stval
    80002ae8:	fcf43023          	sd	a5,-64(s0)
    80002aec:	fc043783          	ld	a5,-64(s0)
    80002af0:	85be                	mv	a1,a5
    80002af2:	00005517          	auipc	a0,0x5
    80002af6:	a9650513          	add	a0,a0,-1386 # 80007588 <userret+0x1524>
    80002afa:	ffffe097          	auipc	ra,0xffffe
    80002afe:	0ec080e7          	jalr	236(ra) # 80000be6 <printf>
            panic("Misaligned load");
    80002b02:	00005517          	auipc	a0,0x5
    80002b06:	ad650513          	add	a0,a0,-1322 # 800075d8 <userret+0x1574>
    80002b0a:	ffffe097          	auipc	ra,0xffffe
    80002b0e:	482080e7          	jalr	1154(ra) # 80000f8c <panic>
            break;
    80002b12:	a84d                	j	80002bc4 <handle_exception+0x288>
            
        case CAUSE_MISALIGNED_STORE:
            printf("\n=== Misaligned Store ===\n");
    80002b14:	00005517          	auipc	a0,0x5
    80002b18:	ad450513          	add	a0,a0,-1324 # 800075e8 <userret+0x1584>
    80002b1c:	ffffe097          	auipc	ra,0xffffe
    80002b20:	0ca080e7          	jalr	202(ra) # 80000be6 <printf>
            printf("Address: %p\n", (void*)r_stval());
    80002b24:	143027f3          	csrr	a5,stval
    80002b28:	fcf43423          	sd	a5,-56(s0)
    80002b2c:	fc843783          	ld	a5,-56(s0)
    80002b30:	85be                	mv	a1,a5
    80002b32:	00005517          	auipc	a0,0x5
    80002b36:	a5650513          	add	a0,a0,-1450 # 80007588 <userret+0x1524>
    80002b3a:	ffffe097          	auipc	ra,0xffffe
    80002b3e:	0ac080e7          	jalr	172(ra) # 80000be6 <printf>
            panic("Misaligned store");
    80002b42:	00005517          	auipc	a0,0x5
    80002b46:	ac650513          	add	a0,a0,-1338 # 80007608 <userret+0x15a4>
    80002b4a:	ffffe097          	auipc	ra,0xffffe
    80002b4e:	442080e7          	jalr	1090(ra) # 80000f8c <panic>
            break;
    80002b52:	a88d                	j	80002bc4 <handle_exception+0x288>
            
        default:
            printf("\n=== Unknown Exception ===\n");
    80002b54:	00005517          	auipc	a0,0x5
    80002b58:	acc50513          	add	a0,a0,-1332 # 80007620 <userret+0x15bc>
    80002b5c:	ffffe097          	auipc	ra,0xffffe
    80002b60:	08a080e7          	jalr	138(ra) # 80000be6 <printf>
            printf("cause: %d\n", (int)cause);
    80002b64:	fd043783          	ld	a5,-48(s0)
    80002b68:	2781                	sext.w	a5,a5
    80002b6a:	85be                	mv	a1,a5
    80002b6c:	00005517          	auipc	a0,0x5
    80002b70:	ad450513          	add	a0,a0,-1324 # 80007640 <userret+0x15dc>
    80002b74:	ffffe097          	auipc	ra,0xffffe
    80002b78:	072080e7          	jalr	114(ra) # 80000be6 <printf>
            printf("PC: %p\n", (void*)tf->sepc);
    80002b7c:	f9843783          	ld	a5,-104(s0)
    80002b80:	7ffc                	ld	a5,248(a5)
    80002b82:	85be                	mv	a1,a5
    80002b84:	00004517          	auipc	a0,0x4
    80002b88:	79450513          	add	a0,a0,1940 # 80007318 <userret+0x12b4>
    80002b8c:	ffffe097          	auipc	ra,0xffffe
    80002b90:	05a080e7          	jalr	90(ra) # 80000be6 <printf>
            printf("stval: %p\n", (void*)r_stval());
    80002b94:	143027f3          	csrr	a5,stval
    80002b98:	faf43423          	sd	a5,-88(s0)
    80002b9c:	fa843783          	ld	a5,-88(s0)
    80002ba0:	85be                	mv	a1,a5
    80002ba2:	00005517          	auipc	a0,0x5
    80002ba6:	aae50513          	add	a0,a0,-1362 # 80007650 <userret+0x15ec>
    80002baa:	ffffe097          	auipc	ra,0xffffe
    80002bae:	03c080e7          	jalr	60(ra) # 80000be6 <printf>
            panic("Unknown exception");
    80002bb2:	00005517          	auipc	a0,0x5
    80002bb6:	aae50513          	add	a0,a0,-1362 # 80007660 <userret+0x15fc>
    80002bba:	ffffe097          	auipc	ra,0xffffe
    80002bbe:	3d2080e7          	jalr	978(ra) # 80000f8c <panic>
    }
}
    80002bc2:	0001                	nop
    80002bc4:	0001                	nop
    80002bc6:	70a6                	ld	ra,104(sp)
    80002bc8:	7406                	ld	s0,96(sp)
    80002bca:	64e6                	ld	s1,88(sp)
    80002bcc:	6165                	add	sp,sp,112
    80002bce:	8082                	ret

0000000080002bd0 <kerneltrap>:

// ==================== 内核态中断/异常处理入口 ====================
void kerneltrap(struct trapframe *tf)
{
    80002bd0:	7139                	add	sp,sp,-64
    80002bd2:	fc06                	sd	ra,56(sp)
    80002bd4:	f822                	sd	s0,48(sp)
    80002bd6:	0080                	add	s0,sp,64
    80002bd8:	fca43423          	sd	a0,-56(s0)
    uint64 sstatus = r_sstatus();
    80002bdc:	100027f3          	csrr	a5,sstatus
    80002be0:	fef43423          	sd	a5,-24(s0)
    80002be4:	fe843783          	ld	a5,-24(s0)
    80002be8:	fef43023          	sd	a5,-32(s0)
    
    if((sstatus & SSTATUS_SPP) == 0) {
    80002bec:	fe043783          	ld	a5,-32(s0)
    80002bf0:	1007f793          	and	a5,a5,256
    80002bf4:	eb89                	bnez	a5,80002c06 <kerneltrap+0x36>
        panic("kerneltrap: not from supervisor mode");
    80002bf6:	00005517          	auipc	a0,0x5
    80002bfa:	ac250513          	add	a0,a0,-1342 # 800076b8 <userret+0x1654>
    80002bfe:	ffffe097          	auipc	ra,0xffffe
    80002c02:	38e080e7          	jalr	910(ra) # 80000f8c <panic>
    }
    
    if(sstatus & SSTATUS_SIE) {
    80002c06:	fe043783          	ld	a5,-32(s0)
    80002c0a:	8b89                	and	a5,a5,2
    80002c0c:	cb89                	beqz	a5,80002c1e <kerneltrap+0x4e>
        panic("kerneltrap: interrupts enabled");
    80002c0e:	00005517          	auipc	a0,0x5
    80002c12:	ad250513          	add	a0,a0,-1326 # 800076e0 <userret+0x167c>
    80002c16:	ffffe097          	auipc	ra,0xffffe
    80002c1a:	376080e7          	jalr	886(ra) # 80000f8c <panic>
    }
    
    int is_device_interrupt = devintr();
    80002c1e:	00000097          	auipc	ra,0x0
    80002c22:	98e080e7          	jalr	-1650(ra) # 800025ac <devintr>
    80002c26:	87aa                	mv	a5,a0
    80002c28:	fcf42e23          	sw	a5,-36(s0)
    
    if(!is_device_interrupt) {
    80002c2c:	fdc42783          	lw	a5,-36(s0)
    80002c30:	2781                	sext.w	a5,a5
    80002c32:	e39d                	bnez	a5,80002c58 <kerneltrap+0x88>
        exception_count++;
    80002c34:	0000b797          	auipc	a5,0xb
    80002c38:	46478793          	add	a5,a5,1124 # 8000e098 <exception_count>
    80002c3c:	639c                	ld	a5,0(a5)
    80002c3e:	00178713          	add	a4,a5,1
    80002c42:	0000b797          	auipc	a5,0xb
    80002c46:	45678793          	add	a5,a5,1110 # 8000e098 <exception_count>
    80002c4a:	e398                	sd	a4,0(a5)
        handle_exception(tf);
    80002c4c:	fc843503          	ld	a0,-56(s0)
    80002c50:	00000097          	auipc	ra,0x0
    80002c54:	cec080e7          	jalr	-788(ra) # 8000293c <handle_exception>
    }
    
    w_sstatus(sstatus);
    80002c58:	fe043783          	ld	a5,-32(s0)
    80002c5c:	10079073          	csrw	sstatus,a5
}
    80002c60:	0001                	nop
    80002c62:	70e2                	ld	ra,56(sp)
    80002c64:	7442                	ld	s0,48(sp)
    80002c66:	6121                	add	sp,sp,64
    80002c68:	8082                	ret

0000000080002c6a <usertrap>:

// ==================== 用户态陷阱处理 ====================

// 处理来自用户态的陷阱
void usertrap(void)
{
    80002c6a:	711d                	add	sp,sp,-96
    80002c6c:	ec86                	sd	ra,88(sp)
    80002c6e:	e8a2                	sd	s0,80(sp)
    80002c70:	1080                	add	s0,sp,96
    // ⭐ 第一时间输出，证明进入了 usertrap
    volatile char *uart = (volatile char*)0x10000000;
    80002c72:	100007b7          	lui	a5,0x10000
    80002c76:	fef43023          	sd	a5,-32(s0)
    uart[0] = '\n';
    80002c7a:	fe043783          	ld	a5,-32(s0)
    80002c7e:	4729                	li	a4,10
    80002c80:	00e78023          	sb	a4,0(a5) # 10000000 <_entry-0x70000000>
    uart[0] = 'U'; uart[0] = 'S'; uart[0] = 'E'; uart[0] = 'R';
    80002c84:	fe043783          	ld	a5,-32(s0)
    80002c88:	05500713          	li	a4,85
    80002c8c:	00e78023          	sb	a4,0(a5)
    80002c90:	fe043783          	ld	a5,-32(s0)
    80002c94:	05300713          	li	a4,83
    80002c98:	00e78023          	sb	a4,0(a5)
    80002c9c:	fe043783          	ld	a5,-32(s0)
    80002ca0:	04500713          	li	a4,69
    80002ca4:	00e78023          	sb	a4,0(a5)
    80002ca8:	fe043783          	ld	a5,-32(s0)
    80002cac:	05200713          	li	a4,82
    80002cb0:	00e78023          	sb	a4,0(a5)
    uart[0] = 'T'; uart[0] = 'R'; uart[0] = 'A'; uart[0] = 'P';
    80002cb4:	fe043783          	ld	a5,-32(s0)
    80002cb8:	05400713          	li	a4,84
    80002cbc:	00e78023          	sb	a4,0(a5)
    80002cc0:	fe043783          	ld	a5,-32(s0)
    80002cc4:	05200713          	li	a4,82
    80002cc8:	00e78023          	sb	a4,0(a5)
    80002ccc:	fe043783          	ld	a5,-32(s0)
    80002cd0:	04100713          	li	a4,65
    80002cd4:	00e78023          	sb	a4,0(a5)
    80002cd8:	fe043783          	ld	a5,-32(s0)
    80002cdc:	05000713          	li	a4,80
    80002ce0:	00e78023          	sb	a4,0(a5)
    uart[0] = '!'; uart[0] = '\n';
    80002ce4:	fe043783          	ld	a5,-32(s0)
    80002ce8:	02100713          	li	a4,33
    80002cec:	00e78023          	sb	a4,0(a5)
    80002cf0:	fe043783          	ld	a5,-32(s0)
    80002cf4:	4729                	li	a4,10
    80002cf6:	00e78023          	sb	a4,0(a5)
    
    struct proc *p = myproc();
    80002cfa:	00001097          	auipc	ra,0x1
    80002cfe:	cde080e7          	jalr	-802(ra) # 800039d8 <myproc>
    80002d02:	fca43c23          	sd	a0,-40(s0)
    
    // 保存 sepc
    p->trapframe->sepc = r_sepc();
    80002d06:	141027f3          	csrr	a5,sepc
    80002d0a:	fcf43823          	sd	a5,-48(s0)
    80002d0e:	fd043703          	ld	a4,-48(s0)
    80002d12:	fd843783          	ld	a5,-40(s0)
    80002d16:	6bdc                	ld	a5,144(a5)
    80002d18:	fff8                	sd	a4,248(a5)
    
    uint64 cause = r_scause();
    80002d1a:	142027f3          	csrr	a5,scause
    80002d1e:	fcf43423          	sd	a5,-56(s0)
    80002d22:	fc843783          	ld	a5,-56(s0)
    80002d26:	fcf43023          	sd	a5,-64(s0)
    
    uart[0] = 'C'; uart[0] = 'A'; uart[0] = 'U'; uart[0] = 'S'; 
    80002d2a:	fe043783          	ld	a5,-32(s0)
    80002d2e:	04300713          	li	a4,67
    80002d32:	00e78023          	sb	a4,0(a5)
    80002d36:	fe043783          	ld	a5,-32(s0)
    80002d3a:	04100713          	li	a4,65
    80002d3e:	00e78023          	sb	a4,0(a5)
    80002d42:	fe043783          	ld	a5,-32(s0)
    80002d46:	05500713          	li	a4,85
    80002d4a:	00e78023          	sb	a4,0(a5)
    80002d4e:	fe043783          	ld	a5,-32(s0)
    80002d52:	05300713          	li	a4,83
    80002d56:	00e78023          	sb	a4,0(a5)
    uart[0] = 'E'; uart[0] = '=';
    80002d5a:	fe043783          	ld	a5,-32(s0)
    80002d5e:	04500713          	li	a4,69
    80002d62:	00e78023          	sb	a4,0(a5)
    80002d66:	fe043783          	ld	a5,-32(s0)
    80002d6a:	03d00713          	li	a4,61
    80002d6e:	00e78023          	sb	a4,0(a5)
    // 输出 cause 的十六进制
    uint64 val = cause;
    80002d72:	fc043783          	ld	a5,-64(s0)
    80002d76:	faf43c23          	sd	a5,-72(s0)
    for(int i = 60; i >= 0; i -= 4) {
    80002d7a:	03c00793          	li	a5,60
    80002d7e:	fef42623          	sw	a5,-20(s0)
    80002d82:	a8a9                	j	80002ddc <usertrap+0x172>
        int digit = (val >> i) & 0xf;
    80002d84:	fec42783          	lw	a5,-20(s0)
    80002d88:	873e                	mv	a4,a5
    80002d8a:	fb843783          	ld	a5,-72(s0)
    80002d8e:	00e7d7b3          	srl	a5,a5,a4
    80002d92:	2781                	sext.w	a5,a5
    80002d94:	8bbd                	and	a5,a5,15
    80002d96:	faf42223          	sw	a5,-92(s0)
        uart[0] = digit < 10 ? '0' + digit : 'a' + digit - 10;
    80002d9a:	fa442783          	lw	a5,-92(s0)
    80002d9e:	0007871b          	sext.w	a4,a5
    80002da2:	47a5                	li	a5,9
    80002da4:	00e7cb63          	blt	a5,a4,80002dba <usertrap+0x150>
    80002da8:	fa442783          	lw	a5,-92(s0)
    80002dac:	0ff7f793          	zext.b	a5,a5
    80002db0:	0307879b          	addw	a5,a5,48
    80002db4:	0ff7f793          	zext.b	a5,a5
    80002db8:	a809                	j	80002dca <usertrap+0x160>
    80002dba:	fa442783          	lw	a5,-92(s0)
    80002dbe:	0ff7f793          	zext.b	a5,a5
    80002dc2:	0577879b          	addw	a5,a5,87
    80002dc6:	0ff7f793          	zext.b	a5,a5
    80002dca:	fe043703          	ld	a4,-32(s0)
    80002dce:	00f70023          	sb	a5,0(a4)
    for(int i = 60; i >= 0; i -= 4) {
    80002dd2:	fec42783          	lw	a5,-20(s0)
    80002dd6:	37f1                	addw	a5,a5,-4
    80002dd8:	fef42623          	sw	a5,-20(s0)
    80002ddc:	fec42783          	lw	a5,-20(s0)
    80002de0:	2781                	sext.w	a5,a5
    80002de2:	fa07d1e3          	bgez	a5,80002d84 <usertrap+0x11a>
    }
    uart[0] = '\n';
    80002de6:	fe043783          	ld	a5,-32(s0)
    80002dea:	4729                	li	a4,10
    80002dec:	00e78023          	sb	a4,0(a5)
    
    if(cause == 8) {  // 用户态 ecall
    80002df0:	fc043703          	ld	a4,-64(s0)
    80002df4:	47a1                	li	a5,8
    80002df6:	0af71463          	bne	a4,a5,80002e9e <usertrap+0x234>
        uart[0] = 'E'; uart[0] = 'C'; uart[0] = 'A'; uart[0] = 'L'; 
    80002dfa:	fe043783          	ld	a5,-32(s0)
    80002dfe:	04500713          	li	a4,69
    80002e02:	00e78023          	sb	a4,0(a5)
    80002e06:	fe043783          	ld	a5,-32(s0)
    80002e0a:	04300713          	li	a4,67
    80002e0e:	00e78023          	sb	a4,0(a5)
    80002e12:	fe043783          	ld	a5,-32(s0)
    80002e16:	04100713          	li	a4,65
    80002e1a:	00e78023          	sb	a4,0(a5)
    80002e1e:	fe043783          	ld	a5,-32(s0)
    80002e22:	04c00713          	li	a4,76
    80002e26:	00e78023          	sb	a4,0(a5)
        uart[0] = 'L'; uart[0] = '\n';
    80002e2a:	fe043783          	ld	a5,-32(s0)
    80002e2e:	04c00713          	li	a4,76
    80002e32:	00e78023          	sb	a4,0(a5)
    80002e36:	fe043783          	ld	a5,-32(s0)
    80002e3a:	4729                	li	a4,10
    80002e3c:	00e78023          	sb	a4,0(a5)
        
        p->trapframe->sepc += 4;
    80002e40:	fd843783          	ld	a5,-40(s0)
    80002e44:	6bdc                	ld	a5,144(a5)
    80002e46:	7ff8                	ld	a4,248(a5)
    80002e48:	fd843783          	ld	a5,-40(s0)
    80002e4c:	6bdc                	ld	a5,144(a5)
    80002e4e:	0711                	add	a4,a4,4
    80002e50:	fff8                	sd	a4,248(a5)
        
        // 调用系统调用处理
        syscall(p->trapframe);
    80002e52:	fd843783          	ld	a5,-40(s0)
    80002e56:	6bdc                	ld	a5,144(a5)
    80002e58:	853e                	mv	a0,a5
    80002e5a:	00002097          	auipc	ra,0x2
    80002e5e:	da2080e7          	jalr	-606(ra) # 80004bfc <syscall>
        
        uart[0] = 'D'; uart[0] = 'O'; uart[0] = 'N'; uart[0] = 'E';
    80002e62:	fe043783          	ld	a5,-32(s0)
    80002e66:	04400713          	li	a4,68
    80002e6a:	00e78023          	sb	a4,0(a5)
    80002e6e:	fe043783          	ld	a5,-32(s0)
    80002e72:	04f00713          	li	a4,79
    80002e76:	00e78023          	sb	a4,0(a5)
    80002e7a:	fe043783          	ld	a5,-32(s0)
    80002e7e:	04e00713          	li	a4,78
    80002e82:	00e78023          	sb	a4,0(a5)
    80002e86:	fe043783          	ld	a5,-32(s0)
    80002e8a:	04500713          	li	a4,69
    80002e8e:	00e78023          	sb	a4,0(a5)
        uart[0] = '\n';
    80002e92:	fe043783          	ld	a5,-32(s0)
    80002e96:	4729                	li	a4,10
    80002e98:	00e78023          	sb	a4,0(a5)
    80002e9c:	a845                	j	80002f4c <usertrap+0x2e2>
    } else {
        uart[0] = 'E'; uart[0] = 'R'; uart[0] = 'R'; uart[0] = '!';
    80002e9e:	fe043783          	ld	a5,-32(s0)
    80002ea2:	04500713          	li	a4,69
    80002ea6:	00e78023          	sb	a4,0(a5)
    80002eaa:	fe043783          	ld	a5,-32(s0)
    80002eae:	05200713          	li	a4,82
    80002eb2:	00e78023          	sb	a4,0(a5)
    80002eb6:	fe043783          	ld	a5,-32(s0)
    80002eba:	05200713          	li	a4,82
    80002ebe:	00e78023          	sb	a4,0(a5)
    80002ec2:	fe043783          	ld	a5,-32(s0)
    80002ec6:	02100713          	li	a4,33
    80002eca:	00e78023          	sb	a4,0(a5)
        uart[0] = '\n';
    80002ece:	fe043783          	ld	a5,-32(s0)
    80002ed2:	4729                	li	a4,10
    80002ed4:	00e78023          	sb	a4,0(a5)
        
        printf("[usertrap] Unexpected trap from PID %d\n", p->pid);
    80002ed8:	fd843783          	ld	a5,-40(s0)
    80002edc:	439c                	lw	a5,0(a5)
    80002ede:	85be                	mv	a1,a5
    80002ee0:	00005517          	auipc	a0,0x5
    80002ee4:	82050513          	add	a0,a0,-2016 # 80007700 <userret+0x169c>
    80002ee8:	ffffe097          	auipc	ra,0xffffe
    80002eec:	cfe080e7          	jalr	-770(ra) # 80000be6 <printf>
        printf("  scause: %p\n", (void*)cause);
    80002ef0:	fc043783          	ld	a5,-64(s0)
    80002ef4:	85be                	mv	a1,a5
    80002ef6:	00005517          	auipc	a0,0x5
    80002efa:	83250513          	add	a0,a0,-1998 # 80007728 <userret+0x16c4>
    80002efe:	ffffe097          	auipc	ra,0xffffe
    80002f02:	ce8080e7          	jalr	-792(ra) # 80000be6 <printf>
        printf("  sepc:   %p\n", (void*)r_sepc());
    80002f06:	141027f3          	csrr	a5,sepc
    80002f0a:	faf43823          	sd	a5,-80(s0)
    80002f0e:	fb043783          	ld	a5,-80(s0)
    80002f12:	85be                	mv	a1,a5
    80002f14:	00005517          	auipc	a0,0x5
    80002f18:	82450513          	add	a0,a0,-2012 # 80007738 <userret+0x16d4>
    80002f1c:	ffffe097          	auipc	ra,0xffffe
    80002f20:	cca080e7          	jalr	-822(ra) # 80000be6 <printf>
        printf("  stval:  %p\n", (void*)r_stval());
    80002f24:	143027f3          	csrr	a5,stval
    80002f28:	faf43423          	sd	a5,-88(s0)
    80002f2c:	fa843783          	ld	a5,-88(s0)
    80002f30:	85be                	mv	a1,a5
    80002f32:	00005517          	auipc	a0,0x5
    80002f36:	81650513          	add	a0,a0,-2026 # 80007748 <userret+0x16e4>
    80002f3a:	ffffe097          	auipc	ra,0xffffe
    80002f3e:	cac080e7          	jalr	-852(ra) # 80000be6 <printf>
        
        exit_proc(-1);
    80002f42:	557d                	li	a0,-1
    80002f44:	00001097          	auipc	ra,0x1
    80002f48:	2ac080e7          	jalr	684(ra) # 800041f0 <exit_proc>
    }
    
    uart[0] = 'R'; uart[0] = 'E'; uart[0] = 'T'; uart[0] = '\n';
    80002f4c:	fe043783          	ld	a5,-32(s0)
    80002f50:	05200713          	li	a4,82
    80002f54:	00e78023          	sb	a4,0(a5)
    80002f58:	fe043783          	ld	a5,-32(s0)
    80002f5c:	04500713          	li	a4,69
    80002f60:	00e78023          	sb	a4,0(a5)
    80002f64:	fe043783          	ld	a5,-32(s0)
    80002f68:	05400713          	li	a4,84
    80002f6c:	00e78023          	sb	a4,0(a5)
    80002f70:	fe043783          	ld	a5,-32(s0)
    80002f74:	4729                	li	a4,10
    80002f76:	00e78023          	sb	a4,0(a5)
    usertrapret();
    80002f7a:	00000097          	auipc	ra,0x0
    80002f7e:	012080e7          	jalr	18(ra) # 80002f8c <usertrapret>
}
    80002f82:	0001                	nop
    80002f84:	60e6                	ld	ra,88(sp)
    80002f86:	6446                	ld	s0,80(sp)
    80002f88:	6125                	add	sp,sp,96
    80002f8a:	8082                	ret

0000000080002f8c <usertrapret>:

// 返回用户态
void usertrapret(void)
{
    80002f8c:	711d                	add	sp,sp,-96
    80002f8e:	ec86                	sd	ra,88(sp)
    80002f90:	e8a2                	sd	s0,80(sp)
    80002f92:	1080                	add	s0,sp,96
    // ⭐ 原始 UART 输出调试
    volatile char *uart = (volatile char*)0x10000000;
    80002f94:	100007b7          	lui	a5,0x10000
    80002f98:	fef43423          	sd	a5,-24(s0)
    uart[0] = 'U'; uart[0] = 'S'; uart[0] = 'E'; uart[0] = 'R';
    80002f9c:	fe843783          	ld	a5,-24(s0)
    80002fa0:	05500713          	li	a4,85
    80002fa4:	00e78023          	sb	a4,0(a5) # 10000000 <_entry-0x70000000>
    80002fa8:	fe843783          	ld	a5,-24(s0)
    80002fac:	05300713          	li	a4,83
    80002fb0:	00e78023          	sb	a4,0(a5)
    80002fb4:	fe843783          	ld	a5,-24(s0)
    80002fb8:	04500713          	li	a4,69
    80002fbc:	00e78023          	sb	a4,0(a5)
    80002fc0:	fe843783          	ld	a5,-24(s0)
    80002fc4:	05200713          	li	a4,82
    80002fc8:	00e78023          	sb	a4,0(a5)
    uart[0] = 'T'; uart[0] = 'R'; uart[0] = 'A'; uart[0] = 'P';
    80002fcc:	fe843783          	ld	a5,-24(s0)
    80002fd0:	05400713          	li	a4,84
    80002fd4:	00e78023          	sb	a4,0(a5)
    80002fd8:	fe843783          	ld	a5,-24(s0)
    80002fdc:	05200713          	li	a4,82
    80002fe0:	00e78023          	sb	a4,0(a5)
    80002fe4:	fe843783          	ld	a5,-24(s0)
    80002fe8:	04100713          	li	a4,65
    80002fec:	00e78023          	sb	a4,0(a5)
    80002ff0:	fe843783          	ld	a5,-24(s0)
    80002ff4:	05000713          	li	a4,80
    80002ff8:	00e78023          	sb	a4,0(a5)
    uart[0] = 'R'; uart[0] = 'E'; uart[0] = 'T'; uart[0] = '\n';
    80002ffc:	fe843783          	ld	a5,-24(s0)
    80003000:	05200713          	li	a4,82
    80003004:	00e78023          	sb	a4,0(a5)
    80003008:	fe843783          	ld	a5,-24(s0)
    8000300c:	04500713          	li	a4,69
    80003010:	00e78023          	sb	a4,0(a5)
    80003014:	fe843783          	ld	a5,-24(s0)
    80003018:	05400713          	li	a4,84
    8000301c:	00e78023          	sb	a4,0(a5)
    80003020:	fe843783          	ld	a5,-24(s0)
    80003024:	4729                	li	a4,10
    80003026:	00e78023          	sb	a4,0(a5)
    
    struct proc *p = myproc();
    8000302a:	00001097          	auipc	ra,0x1
    8000302e:	9ae080e7          	jalr	-1618(ra) # 800039d8 <myproc>
    80003032:	fea43023          	sd	a0,-32(s0)
    
    uart[0] = '1'; uart[0] = '\n';
    80003036:	fe843783          	ld	a5,-24(s0)
    8000303a:	03100713          	li	a4,49
    8000303e:	00e78023          	sb	a4,0(a5)
    80003042:	fe843783          	ld	a5,-24(s0)
    80003046:	4729                	li	a4,10
    80003048:	00e78023          	sb	a4,0(a5)
    
    w_sstatus(r_sstatus() & ~SSTATUS_SIE);
    8000304c:	100027f3          	csrr	a5,sstatus
    80003050:	fcf43c23          	sd	a5,-40(s0)
    80003054:	fd843783          	ld	a5,-40(s0)
    80003058:	9bf5                	and	a5,a5,-3
    8000305a:	10079073          	csrw	sstatus,a5
    
    uart[0] = '2'; uart[0] = '\n';
    8000305e:	fe843783          	ld	a5,-24(s0)
    80003062:	03200713          	li	a4,50
    80003066:	00e78023          	sb	a4,0(a5)
    8000306a:	fe843783          	ld	a5,-24(s0)
    8000306e:	4729                	li	a4,10
    80003070:	00e78023          	sb	a4,0(a5)
    
    // ⭐ 不需要再声明，已经在 defs.h 中
    uint64 trampoline_uservec = TRAMPOLINE + (uservec - trampoline);
    80003074:	00003717          	auipc	a4,0x3
    80003078:	f8c70713          	add	a4,a4,-116 # 80006000 <etext>
    8000307c:	00003797          	auipc	a5,0x3
    80003080:	f8478793          	add	a5,a5,-124 # 80006000 <etext>
    80003084:	8f1d                	sub	a4,a4,a5
    80003086:	040007b7          	lui	a5,0x4000
    8000308a:	17fd                	add	a5,a5,-1 # 3ffffff <_entry-0x7c000001>
    8000308c:	07b2                	sll	a5,a5,0xc
    8000308e:	97ba                	add	a5,a5,a4
    80003090:	fcf43823          	sd	a5,-48(s0)
    w_stvec(trampoline_uservec);
    80003094:	fd043783          	ld	a5,-48(s0)
    80003098:	10579073          	csrw	stvec,a5
    
    uart[0] = '3'; uart[0] = '\n';
    8000309c:	fe843783          	ld	a5,-24(s0)
    800030a0:	03300713          	li	a4,51
    800030a4:	00e78023          	sb	a4,0(a5)
    800030a8:	fe843783          	ld	a5,-24(s0)
    800030ac:	4729                	li	a4,10
    800030ae:	00e78023          	sb	a4,0(a5)
    
    p->trapframe->kernel_satp = r_satp();
    800030b2:	180027f3          	csrr	a5,satp
    800030b6:	fcf43423          	sd	a5,-56(s0)
    800030ba:	fc843703          	ld	a4,-56(s0)
    800030be:	fe043783          	ld	a5,-32(s0)
    800030c2:	6bdc                	ld	a5,144(a5)
    800030c4:	10e7b423          	sd	a4,264(a5)
    p->trapframe->kernel_sp = p->kstack + KSTACK_SIZE;
    800030c8:	fe043783          	ld	a5,-32(s0)
    800030cc:	67d4                	ld	a3,136(a5)
    800030ce:	fe043783          	ld	a5,-32(s0)
    800030d2:	6bdc                	ld	a5,144(a5)
    800030d4:	6705                	lui	a4,0x1
    800030d6:	9736                	add	a4,a4,a3
    800030d8:	10e7b823          	sd	a4,272(a5)
    p->trapframe->kernel_trap = (uint64)usertrap;
    800030dc:	fe043783          	ld	a5,-32(s0)
    800030e0:	6bdc                	ld	a5,144(a5)
    800030e2:	00000717          	auipc	a4,0x0
    800030e6:	b8870713          	add	a4,a4,-1144 # 80002c6a <usertrap>
    800030ea:	10e7bc23          	sd	a4,280(a5)
    
    uart[0] = '4'; uart[0] = '\n';
    800030ee:	fe843783          	ld	a5,-24(s0)
    800030f2:	03400713          	li	a4,52
    800030f6:	00e78023          	sb	a4,0(a5)
    800030fa:	fe843783          	ld	a5,-24(s0)
    800030fe:	4729                	li	a4,10
    80003100:	00e78023          	sb	a4,0(a5)
    
    uint64 x = r_sstatus();
    80003104:	100027f3          	csrr	a5,sstatus
    80003108:	fcf43023          	sd	a5,-64(s0)
    8000310c:	fc043783          	ld	a5,-64(s0)
    80003110:	faf43c23          	sd	a5,-72(s0)
    x &= ~SSTATUS_SPP;
    80003114:	fb843783          	ld	a5,-72(s0)
    80003118:	eff7f793          	and	a5,a5,-257
    8000311c:	faf43c23          	sd	a5,-72(s0)
    x |= SSTATUS_SPIE;
    80003120:	fb843783          	ld	a5,-72(s0)
    80003124:	0207e793          	or	a5,a5,32
    80003128:	faf43c23          	sd	a5,-72(s0)
    w_sstatus(x);
    8000312c:	fb843783          	ld	a5,-72(s0)
    80003130:	10079073          	csrw	sstatus,a5
    
    uart[0] = '5'; uart[0] = '\n';
    80003134:	fe843783          	ld	a5,-24(s0)
    80003138:	03500713          	li	a4,53
    8000313c:	00e78023          	sb	a4,0(a5)
    80003140:	fe843783          	ld	a5,-24(s0)
    80003144:	4729                	li	a4,10
    80003146:	00e78023          	sb	a4,0(a5)
    
    w_sepc(p->trapframe->sepc);
    8000314a:	fe043783          	ld	a5,-32(s0)
    8000314e:	6bdc                	ld	a5,144(a5)
    80003150:	7ffc                	ld	a5,248(a5)
    80003152:	14179073          	csrw	sepc,a5
    
    uart[0] = '6'; uart[0] = '\n';
    80003156:	fe843783          	ld	a5,-24(s0)
    8000315a:	03600713          	li	a4,54
    8000315e:	00e78023          	sb	a4,0(a5)
    80003162:	fe843783          	ld	a5,-24(s0)
    80003166:	4729                	li	a4,10
    80003168:	00e78023          	sb	a4,0(a5)
    
    uint64 satp = MAKE_SATP(p->pagetable);
    8000316c:	fe043783          	ld	a5,-32(s0)
    80003170:	67fc                	ld	a5,200(a5)
    80003172:	00c7d713          	srl	a4,a5,0xc
    80003176:	57fd                	li	a5,-1
    80003178:	17fe                	sll	a5,a5,0x3f
    8000317a:	8fd9                	or	a5,a5,a4
    8000317c:	faf43823          	sd	a5,-80(s0)
    
    uart[0] = '7'; uart[0] = '\n';
    80003180:	fe843783          	ld	a5,-24(s0)
    80003184:	03700713          	li	a4,55
    80003188:	00e78023          	sb	a4,0(a5)
    8000318c:	fe843783          	ld	a5,-24(s0)
    80003190:	4729                	li	a4,10
    80003192:	00e78023          	sb	a4,0(a5)
    
    // ⭐ 不需要再声明
    uint64 trampoline_userret = TRAMPOLINE + (userret - trampoline);
    80003196:	00003717          	auipc	a4,0x3
    8000319a:	ece70713          	add	a4,a4,-306 # 80006064 <userret>
    8000319e:	00003797          	auipc	a5,0x3
    800031a2:	e6278793          	add	a5,a5,-414 # 80006000 <etext>
    800031a6:	8f1d                	sub	a4,a4,a5
    800031a8:	040007b7          	lui	a5,0x4000
    800031ac:	17fd                	add	a5,a5,-1 # 3ffffff <_entry-0x7c000001>
    800031ae:	07b2                	sll	a5,a5,0xc
    800031b0:	97ba                	add	a5,a5,a4
    800031b2:	faf43423          	sd	a5,-88(s0)
    
    uart[0] = '8'; uart[0] = '\n';
    800031b6:	fe843783          	ld	a5,-24(s0)
    800031ba:	03800713          	li	a4,56
    800031be:	00e78023          	sb	a4,0(a5)
    800031c2:	fe843783          	ld	a5,-24(s0)
    800031c6:	4729                	li	a4,10
    800031c8:	00e78023          	sb	a4,0(a5)
    
    ((void(*)(uint64,uint64))trampoline_userret)(TRAPFRAME, satp);
    800031cc:	fa843783          	ld	a5,-88(s0)
    800031d0:	fb043583          	ld	a1,-80(s0)
    800031d4:	02000737          	lui	a4,0x2000
    800031d8:	177d                	add	a4,a4,-1 # 1ffffff <_entry-0x7e000001>
    800031da:	00d71513          	sll	a0,a4,0xd
    800031de:	9782                	jalr	a5
    
    uart[0] = 'X'; uart[0] = '\n';
    800031e0:	fe843783          	ld	a5,-24(s0)
    800031e4:	05800713          	li	a4,88
    800031e8:	00e78023          	sb	a4,0(a5)
    800031ec:	fe843783          	ld	a5,-24(s0)
    800031f0:	4729                	li	a4,10
    800031f2:	00e78023          	sb	a4,0(a5)
}
    800031f6:	0001                	nop
    800031f8:	60e6                	ld	ra,88(sp)
    800031fa:	6446                	ld	s0,80(sp)
    800031fc:	6125                	add	sp,sp,96
    800031fe:	8082                	ret

0000000080003200 <trap_cause_name>:

// ==================== 辅助函数 ====================
const char* trap_cause_name(uint64 cause)
{
    80003200:	1101                	add	sp,sp,-32
    80003202:	ec22                	sd	s0,24(sp)
    80003204:	1000                	add	s0,sp,32
    80003206:	fea43423          	sd	a0,-24(s0)
    if(cause & 0x8000000000000000L) {
    8000320a:	fe843783          	ld	a5,-24(s0)
    8000320e:	0807d263          	bgez	a5,80003292 <trap_cause_name+0x92>
        cause = cause & 0xff;
    80003212:	fe843783          	ld	a5,-24(s0)
    80003216:	0ff7f793          	zext.b	a5,a5
    8000321a:	fef43423          	sd	a5,-24(s0)
        switch(cause) {
    8000321e:	fe843703          	ld	a4,-24(s0)
    80003222:	47ad                	li	a5,11
    80003224:	06e7e263          	bltu	a5,a4,80003288 <trap_cause_name+0x88>
    80003228:	fe843783          	ld	a5,-24(s0)
    8000322c:	00279713          	sll	a4,a5,0x2
    80003230:	00004797          	auipc	a5,0x4
    80003234:	72878793          	add	a5,a5,1832 # 80007958 <userret+0x18f4>
    80003238:	97ba                	add	a5,a5,a4
    8000323a:	439c                	lw	a5,0(a5)
    8000323c:	0007871b          	sext.w	a4,a5
    80003240:	00004797          	auipc	a5,0x4
    80003244:	71878793          	add	a5,a5,1816 # 80007958 <userret+0x18f4>
    80003248:	97ba                	add	a5,a5,a4
    8000324a:	8782                	jr	a5
            case IRQ_S_SOFT: return "Supervisor software interrupt";
    8000324c:	00004797          	auipc	a5,0x4
    80003250:	50c78793          	add	a5,a5,1292 # 80007758 <userret+0x16f4>
    80003254:	a201                	j	80003354 <trap_cause_name+0x154>
            case IRQ_M_SOFT: return "Machine software interrupt";
    80003256:	00004797          	auipc	a5,0x4
    8000325a:	52278793          	add	a5,a5,1314 # 80007778 <userret+0x1714>
    8000325e:	a8dd                	j	80003354 <trap_cause_name+0x154>
            case IRQ_S_TIMER: return "Supervisor timer interrupt";
    80003260:	00004797          	auipc	a5,0x4
    80003264:	53878793          	add	a5,a5,1336 # 80007798 <userret+0x1734>
    80003268:	a0f5                	j	80003354 <trap_cause_name+0x154>
            case IRQ_M_TIMER: return "Machine timer interrupt";
    8000326a:	00004797          	auipc	a5,0x4
    8000326e:	54e78793          	add	a5,a5,1358 # 800077b8 <userret+0x1754>
    80003272:	a0cd                	j	80003354 <trap_cause_name+0x154>
            case IRQ_S_EXT: return "Supervisor external interrupt";
    80003274:	00004797          	auipc	a5,0x4
    80003278:	55c78793          	add	a5,a5,1372 # 800077d0 <userret+0x176c>
    8000327c:	a8e1                	j	80003354 <trap_cause_name+0x154>
            case IRQ_M_EXT: return "Machine external interrupt";
    8000327e:	00004797          	auipc	a5,0x4
    80003282:	57278793          	add	a5,a5,1394 # 800077f0 <userret+0x178c>
    80003286:	a0f9                	j	80003354 <trap_cause_name+0x154>
            default: return "Unknown interrupt";
    80003288:	00004797          	auipc	a5,0x4
    8000328c:	58878793          	add	a5,a5,1416 # 80007810 <userret+0x17ac>
    80003290:	a0d1                	j	80003354 <trap_cause_name+0x154>
        }
    } else {
        switch(cause) {
    80003292:	fe843703          	ld	a4,-24(s0)
    80003296:	47bd                	li	a5,15
    80003298:	0ae7ea63          	bltu	a5,a4,8000334c <trap_cause_name+0x14c>
    8000329c:	fe843783          	ld	a5,-24(s0)
    800032a0:	00279713          	sll	a4,a5,0x2
    800032a4:	00004797          	auipc	a5,0x4
    800032a8:	6e478793          	add	a5,a5,1764 # 80007988 <userret+0x1924>
    800032ac:	97ba                	add	a5,a5,a4
    800032ae:	439c                	lw	a5,0(a5)
    800032b0:	0007871b          	sext.w	a4,a5
    800032b4:	00004797          	auipc	a5,0x4
    800032b8:	6d478793          	add	a5,a5,1748 # 80007988 <userret+0x1924>
    800032bc:	97ba                	add	a5,a5,a4
    800032be:	8782                	jr	a5
            case CAUSE_MISALIGNED_FETCH: return "Instruction address misaligned";
    800032c0:	00004797          	auipc	a5,0x4
    800032c4:	56878793          	add	a5,a5,1384 # 80007828 <userret+0x17c4>
    800032c8:	a071                	j	80003354 <trap_cause_name+0x154>
            case CAUSE_FETCH_ACCESS: return "Instruction access fault";
    800032ca:	00004797          	auipc	a5,0x4
    800032ce:	57e78793          	add	a5,a5,1406 # 80007848 <userret+0x17e4>
    800032d2:	a049                	j	80003354 <trap_cause_name+0x154>
            case CAUSE_ILLEGAL_INSTRUCTION: return "Illegal instruction";
    800032d4:	00004797          	auipc	a5,0x4
    800032d8:	23478793          	add	a5,a5,564 # 80007508 <userret+0x14a4>
    800032dc:	a8a5                	j	80003354 <trap_cause_name+0x154>
            case CAUSE_BREAKPOINT: return "Breakpoint";
    800032de:	00004797          	auipc	a5,0x4
    800032e2:	58a78793          	add	a5,a5,1418 # 80007868 <userret+0x1804>
    800032e6:	a0bd                	j	80003354 <trap_cause_name+0x154>
